ARM GAS  C:\Users\ykuch\AppData\Local\Temp\ccNMJLYW.s 			page 1


   1              		.syntax unified
   2              		.cpu cortex-m0
   3              		.fpu softvfp
   4              		.eabi_attribute 20, 1
   5              		.eabi_attribute 21, 1
   6              		.eabi_attribute 23, 3
   7              		.eabi_attribute 24, 1
   8              		.eabi_attribute 25, 1
   9              		.eabi_attribute 26, 1
  10              		.eabi_attribute 30, 1
  11              		.eabi_attribute 34, 0
  12              		.eabi_attribute 18, 4
  13              		.thumb
  14              		.syntax unified
  15              		.file	"main.c"
  16              		.text
  17              	.Ltext0:
  18              		.cfi_sections	.debug_frame
  19              		.section	.text.program_WORKER,"ax",%progbits
  20              		.align	2
  21              		.global	program_WORKER
  22              		.code	16
  23              		.thumb_func
  24              		.type	program_WORKER, %function
  25              	program_WORKER:
  26              	.LFB32:
  27              		.file 1 "main.c"
   1:main.c        **** #include <project.h>
   2:main.c        **** 
   3:main.c        **** uint16 t = 0;
   4:main.c        **** 
   5:main.c        **** CY_ISR(program_WORKER)
   6:main.c        **** {
  28              		.loc 1 6 0
  29              		.cfi_startproc
  30              		@ args = 0, pretend = 0, frame = 0
  31              		@ frame_needed = 0, uses_anonymous_args = 0
  32 0000 10B5     		push	{r4, lr}
  33              		.cfi_def_cfa_offset 8
  34              		.cfi_offset 4, -8
  35              		.cfi_offset 14, -4
   7:main.c        ****     LCD_Position(0, 1);
  36              		.loc 1 7 0
  37 0002 0121     		movs	r1, #1
  38 0004 0020     		movs	r0, #0
  39 0006 FFF7FEFF 		bl	LCD_Position
  40              	.LVL0:
   8:main.c        ****     t++;
  41              		.loc 1 8 0
  42 000a 044B     		ldr	r3, .L2
  43 000c 1888     		ldrh	r0, [r3]
  44 000e 0130     		adds	r0, r0, #1
  45 0010 80B2     		uxth	r0, r0
  46 0012 1880     		strh	r0, [r3]
   9:main.c        ****     LCD_PrintInt16(t);
  47              		.loc 1 9 0
  48 0014 FFF7FEFF 		bl	LCD_PrintInt16
ARM GAS  C:\Users\ykuch\AppData\Local\Temp\ccNMJLYW.s 			page 2


  49              	.LVL1:
  10:main.c        **** }
  50              		.loc 1 10 0
  51              		@ sp needed
  52 0018 10BD     		pop	{r4, pc}
  53              	.L3:
  54 001a C046     		.align	2
  55              	.L2:
  56 001c 00000000 		.word	.LANCHOR0
  57              		.cfi_endproc
  58              	.LFE32:
  59              		.size	program_WORKER, .-program_WORKER
  60              		.section	.text.main,"ax",%progbits
  61              		.align	2
  62              		.global	main
  63              		.code	16
  64              		.thumb_func
  65              		.type	main, %function
  66              	main:
  67              	.LFB33:
  11:main.c        **** 
  12:main.c        **** int main()
  13:main.c        **** {
  68              		.loc 1 13 0
  69              		.cfi_startproc
  70              		@ Volatile: function does not return.
  71              		@ args = 0, pretend = 0, frame = 0
  72              		@ frame_needed = 0, uses_anonymous_args = 0
  73 0000 10B5     		push	{r4, lr}
  74              		.cfi_def_cfa_offset 8
  75              		.cfi_offset 4, -8
  76              		.cfi_offset 14, -4
  14:main.c        ****     CyGlobalIntEnable;
  77              		.loc 1 14 0
  78              		.syntax divided
  79              	@ 14 "main.c" 1
  80 0002 62B6     		CPSIE   i
  81              	@ 0 "" 2
  15:main.c        ****     ISR_StartEx(program_WORKER);
  82              		.loc 1 15 0
  83              		.thumb
  84              		.syntax unified
  85 0004 0348     		ldr	r0, .L6
  86 0006 FFF7FEFF 		bl	ISR_StartEx
  87              	.LVL2:
  16:main.c        ****     Timer_1_Start();
  88              		.loc 1 16 0
  89 000a FFF7FEFF 		bl	Timer_1_Start
  90              	.LVL3:
  17:main.c        ****     LCD_Init();
  91              		.loc 1 17 0
  92 000e FFF7FEFF 		bl	LCD_Init
  93              	.LVL4:
  94              	.L5:
  95 0012 FEE7     		b	.L5
  96              	.L7:
  97              		.align	2
ARM GAS  C:\Users\ykuch\AppData\Local\Temp\ccNMJLYW.s 			page 3


  98              	.L6:
  99 0014 00000000 		.word	program_WORKER
 100              		.cfi_endproc
 101              	.LFE33:
 102              		.size	main, .-main
 103              		.global	t
 104              		.bss
 105              		.align	1
 106              		.set	.LANCHOR0,. + 0
 107              		.type	t, %object
 108              		.size	t, 2
 109              	t:
 110 0000 0000     		.space	2
 111              		.text
 112              	.Letext0:
 113              		.file 2 "Generated_Source\\PSoC4/LCD.h"
 114              		.file 3 "Generated_Source\\PSoC4/ISR.h"
 115              		.file 4 "Generated_Source\\PSoC4/Timer_1.h"
 116              		.file 5 "Generated_Source\\PSoC4/cytypes.h"