ARM GAS  C:\Users\Acer\AppData\Local\Temp\ccW749wr.s 			page 1


   1              		.syntax unified
   2              		.cpu cortex-m0
   3              		.fpu softvfp
   4              		.eabi_attribute 20, 1
   5              		.eabi_attribute 21, 1
   6              		.eabi_attribute 23, 3
   7              		.eabi_attribute 24, 1
   8              		.eabi_attribute 25, 1
   9              		.eabi_attribute 26, 1
  10              		.eabi_attribute 30, 1
  11              		.eabi_attribute 34, 0
  12              		.eabi_attribute 18, 4
  13              		.thumb
  14              		.syntax unified
  15              		.file	"main.c"
  16              		.text
  17              	.Ltext0:
  18              		.cfi_sections	.debug_frame
  19              		.section	.text.Error_Return,"ax",%progbits
  20              		.align	2
  21              		.global	Error_Return
  22              		.code	16
  23              		.thumb_func
  24              		.type	Error_Return, %function
  25              	Error_Return:
  26              	.LFB32:
  27              		.file 1 "main.c"
   1:main.c        **** #include "project.h"
   2:main.c        **** /* Number of channnels */
   3:main.c        **** #define NUMBER_OF_CHANNELS (3)
   4:main.c        **** /* Variable to identify the first channel */
   5:main.c        **** #define FIRST_CHANNEL (0)
   6:main.c        **** /* Variable to identify the second channel */
   7:main.c        **** #define SECOND_CHANNEL (1)
   8:main.c        **** /* Variable to identify the third channel */
   9:main.c        **** #define THIRD_CHANNEL (2)
  10:main.c        **** /* The argument of the Pin_Write API to turn on the LED */
  11:main.c        **** #define LED_ON_VALUE (0)
  12:main.c        **** /* The argument of the Pin_Write API to turn off the LED */
  13:main.c        **** #define LED_OFF_VALUE (1)
  14:main.c        **** /* Size of UART buffer */
  15:main.c        **** #define UART_BUFFER_SIZE (19)
  16:main.c        **** /* UART buffer indexes */
  17:main.c        **** #define UART_BUFFER_A_IDX (0)
  18:main.c        **** #define UART_BUFFER_T_IDX (1)
  19:main.c        **** #define UART_BUFFER_PLUS_F_IDX (2) // PLUS - Symbol "+"
  20:main.c        **** #define UART_BUFFER_C_IDX (3)
  21:main.c        **** #define UART_BUFFER_O_IDX (4)
  22:main.c        **** #define UART_BUFFER_N_IDX (5)
  23:main.c        **** #define UART_BUFFER_F_IDX (6)
  24:main.c        **** #define UART_BUFFER_EQUALS_IDX (7) // EQUALS - Symbol "="
  25:main.c        **** /* Channel number one */
  26:main.c        **** #define UART_BUFFER_D1_VALUE_IDX (8)
  27:main.c        **** #define UART_BUFFER_H1_VALUE_IDX (9)
  28:main.c        **** #define UART_BUFFER_L1_VALUE_IDX (10)
  29:main.c        **** #define UART_BUFFER_PLUS_S_IDX (11) // PLUS - Symbol "+"
  30:main.c        **** /* Channel number two */
ARM GAS  C:\Users\Acer\AppData\Local\Temp\ccW749wr.s 			page 2


  31:main.c        **** #define UART_BUFFER_D2_VALUE_IDX (12)
  32:main.c        **** #define UART_BUFFER_H2_VALUE_IDX (13)
  33:main.c        **** #define UART_BUFFER_L2_VALUE_IDX (14)
  34:main.c        **** #define UART_BUFFER_PLUS_T_IDX (15) // PLUS - Symbol "+"
  35:main.c        **** /* Channel number three */
  36:main.c        **** #define UART_BUFFER_D3_VALUE_IDX (16)
  37:main.c        **** #define UART_BUFFER_H3_VALUE_IDX (17)
  38:main.c        **** #define UART_BUFFER_L3_VALUE_IDX (18)
  39:main.c        **** /* ASCII offset for digits. ASCII code of 0 in ASCII table. */
  40:main.c        **** #define ASCII_OFFSET_FOR_DIGITS (48)
  41:main.c        **** /* Channel Descriptor Type */
  42:main.c        **** typedef struct
  43:main.c        **** {
  44:main.c        ****     uint8 Current_D; /* Counter of state D duration */
  45:main.c        ****     uint8 Current_H; /* Counter of state H duration */
  46:main.c        ****     uint8 Current_L; /* Counter of state L duration */
  47:main.c        ****     uint8 Max_D; /* Maximum state D duration */
  48:main.c        ****     uint8 Max_H; /* Maximum state H duration */
  49:main.c        ****     uint8 Max_L; /* Maximum state L duration */
  50:main.c        ****     void (*PinControlFunction)(uint8); /* Pointer to pin control function */
  51:main.c        **** } ChannelDescriptorType;
  52:main.c        **** 
  53:main.c        **** // ==========================================================================================
  54:main.c        **** 
  55:main.c        **** /* Channels descriptors array with size of channels number */
  56:main.c        **** ChannelDescriptorType ChannelDescriptorsArray[NUMBER_OF_CHANNELS];
  57:main.c        **** /* Buffer to store data from UART */
  58:main.c        **** char UartBuffer[UART_BUFFER_SIZE];
  59:main.c        **** 
  60:main.c        **** /* Index to the current UART buffer element */
  61:main.c        **** uint8 UartBufferIdx;
  62:main.c        **** 
  63:main.c        **** // ==========================================================================================
  64:main.c        **** 
  65:main.c        **** /* This function notifies the user that an incorrect AT-command has been entered */
  66:main.c        **** void Error_Return(void)
  67:main.c        **** {
  28              		.loc 1 67 0
  29              		.cfi_startproc
  30              		@ args = 0, pretend = 0, frame = 0
  31              		@ frame_needed = 0, uses_anonymous_args = 0
  32 0000 10B5     		push	{r4, lr}
  33              		.cfi_def_cfa_offset 8
  34              		.cfi_offset 4, -8
  35              		.cfi_offset 14, -4
  68:main.c        ****     UART_1_UartPutChar('\n');
  36              		.loc 1 68 0
  37 0002 0A20     		movs	r0, #10
  38 0004 FFF7FEFF 		bl	UART_1_SpiUartWriteTxData
  39              	.LVL0:
  69:main.c        ****     UART_1_UartPutChar('\r');
  40              		.loc 1 69 0
  41 0008 0D20     		movs	r0, #13
  42 000a FFF7FEFF 		bl	UART_1_SpiUartWriteTxData
  43              	.LVL1:
  70:main.c        ****     UART_1_UartPutChar(' ');
  44              		.loc 1 70 0
ARM GAS  C:\Users\Acer\AppData\Local\Temp\ccW749wr.s 			page 3


  45 000e 2020     		movs	r0, #32
  46 0010 FFF7FEFF 		bl	UART_1_SpiUartWriteTxData
  47              	.LVL2:
  71:main.c        ****     UART_1_UartPutChar('E');
  48              		.loc 1 71 0
  49 0014 4520     		movs	r0, #69
  50 0016 FFF7FEFF 		bl	UART_1_SpiUartWriteTxData
  51              	.LVL3:
  72:main.c        ****     UART_1_UartPutChar('r');
  52              		.loc 1 72 0
  53 001a 7220     		movs	r0, #114
  54 001c FFF7FEFF 		bl	UART_1_SpiUartWriteTxData
  55              	.LVL4:
  73:main.c        ****     UART_1_UartPutChar('r');
  56              		.loc 1 73 0
  57 0020 7220     		movs	r0, #114
  58 0022 FFF7FEFF 		bl	UART_1_SpiUartWriteTxData
  59              	.LVL5:
  74:main.c        ****     UART_1_UartPutChar('o');
  60              		.loc 1 74 0
  61 0026 6F20     		movs	r0, #111
  62 0028 FFF7FEFF 		bl	UART_1_SpiUartWriteTxData
  63              	.LVL6:
  75:main.c        ****     UART_1_UartPutChar('r');
  64              		.loc 1 75 0
  65 002c 7220     		movs	r0, #114
  66 002e FFF7FEFF 		bl	UART_1_SpiUartWriteTxData
  67              	.LVL7:
  76:main.c        ****     UART_1_UartPutChar(' ');
  68              		.loc 1 76 0
  69 0032 2020     		movs	r0, #32
  70 0034 FFF7FEFF 		bl	UART_1_SpiUartWriteTxData
  71              	.LVL8:
  77:main.c        ****     UART_1_UartPutChar('\n');
  72              		.loc 1 77 0
  73 0038 0A20     		movs	r0, #10
  74 003a FFF7FEFF 		bl	UART_1_SpiUartWriteTxData
  75              	.LVL9:
  78:main.c        ****     UART_1_UartPutChar('\r');
  76              		.loc 1 78 0
  77 003e 0D20     		movs	r0, #13
  78 0040 FFF7FEFF 		bl	UART_1_SpiUartWriteTxData
  79              	.LVL10:
  79:main.c        **** }
  80              		.loc 1 79 0
  81              		@ sp needed
  82 0044 10BD     		pop	{r4, pc}
  83              		.cfi_endproc
  84              	.LFE32:
  85              		.size	Error_Return, .-Error_Return
  86 0046 C046     		.section	.text.ChannelController,"ax",%progbits
  87              		.align	2
  88              		.global	ChannelController
  89              		.code	16
  90              		.thumb_func
  91              		.type	ChannelController, %function
  92              	ChannelController:
ARM GAS  C:\Users\Acer\AppData\Local\Temp\ccW749wr.s 			page 4


  93              	.LFB33:
  80:main.c        **** 
  81:main.c        **** void ChannelController(uint8 Channel_Number)
  82:main.c        **** {
  94              		.loc 1 82 0
  95              		.cfi_startproc
  96              		@ args = 0, pretend = 0, frame = 0
  97              		@ frame_needed = 0, uses_anonymous_args = 0
  98              	.LVL11:
  99 0000 70B5     		push	{r4, r5, r6, lr}
 100              		.cfi_def_cfa_offset 16
 101              		.cfi_offset 4, -16
 102              		.cfi_offset 5, -12
 103              		.cfi_offset 6, -8
 104              		.cfi_offset 14, -4
  83:main.c        ****     if(ChannelDescriptorsArray[Channel_Number].Current_D > 0)
 105              		.loc 1 83 0
 106 0002 4300     		lsls	r3, r0, #1
 107 0004 1B18     		adds	r3, r3, r0
 108 0006 9A00     		lsls	r2, r3, #2
 109 0008 254B     		ldr	r3, .L7
 110 000a D15C     		ldrb	r1, [r2, r3]
 111 000c 0029     		cmp	r1, #0
 112 000e 0AD0     		beq	.L3
  84:main.c        ****     {
  85:main.c        ****         ChannelDescriptorsArray[Channel_Number].Current_D--;
 113              		.loc 1 85 0
 114 0010 1A00     		movs	r2, r3
 115 0012 4300     		lsls	r3, r0, #1
 116 0014 1D18     		adds	r5, r3, r0
 117 0016 AC00     		lsls	r4, r5, #2
 118 0018 0139     		subs	r1, r1, #1
 119 001a A154     		strb	r1, [r4, r2]
  86:main.c        ****         ChannelDescriptorsArray[Channel_Number].PinControlFunction(LED_OFF_VALUE);
 120              		.loc 1 86 0
 121 001c 1319     		adds	r3, r2, r4
 122 001e 9B68     		ldr	r3, [r3, #8]
 123 0020 0120     		movs	r0, #1
 124              	.LVL12:
 125 0022 9847     		blx	r3
 126              	.LVL13:
  87:main.c        ****         return;
 127              		.loc 1 87 0
 128 0024 3AE0     		b	.L2
 129              	.LVL14:
 130              	.L3:
  88:main.c        ****     }
  89:main.c        ****     if(ChannelDescriptorsArray[Channel_Number].Current_H > 0)
 131              		.loc 1 89 0
 132 0026 4200     		lsls	r2, r0, #1
 133 0028 1218     		adds	r2, r2, r0
 134 002a 9300     		lsls	r3, r2, #2
 135 002c 1C4A     		ldr	r2, .L7
 136 002e D318     		adds	r3, r2, r3
 137 0030 5C78     		ldrb	r4, [r3, #1]
 138 0032 002C     		cmp	r4, #0
 139 0034 0AD0     		beq	.L5
ARM GAS  C:\Users\Acer\AppData\Local\Temp\ccW749wr.s 			page 5


  90:main.c        ****     {
  91:main.c        ****         ChannelDescriptorsArray[Channel_Number].Current_H--;
 140              		.loc 1 91 0
 141 0036 1100     		movs	r1, r2
 142 0038 4300     		lsls	r3, r0, #1
 143 003a 1D18     		adds	r5, r3, r0
 144 003c AA00     		lsls	r2, r5, #2
 145 003e 8A18     		adds	r2, r1, r2
 146 0040 013C     		subs	r4, r4, #1
 147 0042 5470     		strb	r4, [r2, #1]
  92:main.c        ****         ChannelDescriptorsArray[Channel_Number].PinControlFunction(LED_ON_VALUE);
 148              		.loc 1 92 0
 149 0044 9368     		ldr	r3, [r2, #8]
 150 0046 0020     		movs	r0, #0
 151              	.LVL15:
 152 0048 9847     		blx	r3
 153              	.LVL16:
  93:main.c        ****         return;
 154              		.loc 1 93 0
 155 004a 27E0     		b	.L2
 156              	.LVL17:
 157              	.L5:
  94:main.c        ****     }
  95:main.c        ****     if(ChannelDescriptorsArray[Channel_Number].Current_L > 0)
 158              		.loc 1 95 0
 159 004c 4200     		lsls	r2, r0, #1
 160 004e 1218     		adds	r2, r2, r0
 161 0050 9300     		lsls	r3, r2, #2
 162 0052 134A     		ldr	r2, .L7
 163 0054 D318     		adds	r3, r2, r3
 164 0056 9B78     		ldrb	r3, [r3, #2]
 165 0058 002B     		cmp	r3, #0
 166 005a 0AD0     		beq	.L6
  96:main.c        ****     {
  97:main.c        ****         ChannelDescriptorsArray[Channel_Number].Current_L--;
 167              		.loc 1 97 0
 168 005c 1400     		movs	r4, r2
 169 005e 4200     		lsls	r2, r0, #1
 170 0060 1518     		adds	r5, r2, r0
 171 0062 A900     		lsls	r1, r5, #2
 172 0064 6118     		adds	r1, r4, r1
 173 0066 013B     		subs	r3, r3, #1
 174 0068 8B70     		strb	r3, [r1, #2]
  98:main.c        ****         ChannelDescriptorsArray[Channel_Number].PinControlFunction(LED_OFF_VALUE);
 175              		.loc 1 98 0
 176 006a 8B68     		ldr	r3, [r1, #8]
 177 006c 0120     		movs	r0, #1
 178              	.LVL18:
 179 006e 9847     		blx	r3
 180              	.LVL19:
  99:main.c        ****         return;
 181              		.loc 1 99 0
 182 0070 14E0     		b	.L2
 183              	.LVL20:
 184              	.L6:
 100:main.c        ****     }
 101:main.c        ****     
ARM GAS  C:\Users\Acer\AppData\Local\Temp\ccW749wr.s 			page 6


 102:main.c        ****     if (     ChannelDescriptorsArray[Channel_Number].Current_D == 0 && 
 185              		.loc 1 102 0
 186 0072 0029     		cmp	r1, #0
 187 0074 12D1     		bne	.L2
 188              		.loc 1 102 0 is_stmt 0 discriminator 1
 189 0076 002C     		cmp	r4, #0
 190 0078 10D1     		bne	.L2
 103:main.c        ****              ChannelDescriptorsArray[Channel_Number].Current_H == 0 && 
 191              		.loc 1 103 0 is_stmt 1
 192 007a 002B     		cmp	r3, #0
 193 007c 0ED1     		bne	.L2
 104:main.c        ****              ChannelDescriptorsArray[Channel_Number].Current_L == 0)
 105:main.c        ****     {
 106:main.c        ****     ChannelDescriptorsArray[Channel_Number].Current_D = 
 107:main.c        ****     ChannelDescriptorsArray[Channel_Number].Max_D;
 194              		.loc 1 107 0
 195 007e 084A     		ldr	r2, .L7
 196 0080 4100     		lsls	r1, r0, #1
 197 0082 0C18     		adds	r4, r1, r0
 198 0084 A300     		lsls	r3, r4, #2
 199 0086 D318     		adds	r3, r2, r3
 200 0088 DE78     		ldrb	r6, [r3, #3]
 106:main.c        ****     ChannelDescriptorsArray[Channel_Number].Max_D;
 201              		.loc 1 106 0
 202 008a 2500     		movs	r5, r4
 203 008c A400     		lsls	r4, r4, #2
 204 008e A654     		strb	r6, [r4, r2]
 108:main.c        ****     
 109:main.c        ****     ChannelDescriptorsArray[Channel_Number].Current_H = 
 110:main.c        ****     ChannelDescriptorsArray[Channel_Number].Max_H;
 205              		.loc 1 110 0
 206 0090 1C79     		ldrb	r4, [r3, #4]
 109:main.c        ****     ChannelDescriptorsArray[Channel_Number].Max_H;
 207              		.loc 1 109 0
 208 0092 5C70     		strb	r4, [r3, #1]
 111:main.c        ****     
 112:main.c        ****     ChannelDescriptorsArray[Channel_Number].Current_L = 
 113:main.c        ****     ChannelDescriptorsArray[Channel_Number].Max_L;
 209              		.loc 1 113 0
 210 0094 5C79     		ldrb	r4, [r3, #5]
 112:main.c        ****     ChannelDescriptorsArray[Channel_Number].Max_L;
 211              		.loc 1 112 0
 212 0096 AB00     		lsls	r3, r5, #2
 213 0098 D318     		adds	r3, r2, r3
 214 009a 9C70     		strb	r4, [r3, #2]
 215              	.LVL21:
 216              	.L2:
 114:main.c        **** 
 115:main.c        ****     return;
 116:main.c        ****     }
 117:main.c        **** }
 217              		.loc 1 117 0
 218              		@ sp needed
 219 009c 70BD     		pop	{r4, r5, r6, pc}
 220              	.L8:
 221 009e C046     		.align	2
 222              	.L7:
ARM GAS  C:\Users\Acer\AppData\Local\Temp\ccW749wr.s 			page 7


 223 00a0 00000000 		.word	ChannelDescriptorsArray
 224              		.cfi_endproc
 225              	.LFE33:
 226              		.size	ChannelController, .-ChannelController
 227              		.section	.text.TimeSlotInterrupt,"ax",%progbits
 228              		.align	2
 229              		.global	TimeSlotInterrupt
 230              		.code	16
 231              		.thumb_func
 232              		.type	TimeSlotInterrupt, %function
 233              	TimeSlotInterrupt:
 234              	.LFB34:
 118:main.c        **** 
 119:main.c        **** // ==========================================================================================
 120:main.c        **** 
 121:main.c        **** /**************************************************************************
 122:main.c        ****  Interrupt Handler called every 500ms
 123:main.c        **** **************************************************************************/
 124:main.c        **** CY_ISR(TimeSlotInterrupt)
 125:main.c        **** {
 235              		.loc 1 125 0
 236              		.cfi_startproc
 237              		@ args = 0, pretend = 0, frame = 0
 238              		@ frame_needed = 0, uses_anonymous_args = 0
 239 0000 10B5     		push	{r4, lr}
 240              		.cfi_def_cfa_offset 8
 241              		.cfi_offset 4, -8
 242              		.cfi_offset 14, -4
 126:main.c        ****         ChannelController(FIRST_CHANNEL); // BLUE
 243              		.loc 1 126 0
 244 0002 0020     		movs	r0, #0
 245 0004 FFF7FEFF 		bl	ChannelController
 246              	.LVL22:
 127:main.c        ****         ChannelController(SECOND_CHANNEL); // GREEN
 247              		.loc 1 127 0
 248 0008 0120     		movs	r0, #1
 249 000a FFF7FEFF 		bl	ChannelController
 250              	.LVL23:
 128:main.c        ****         ChannelController(THIRD_CHANNEL); // RED
 251              		.loc 1 128 0
 252 000e 0220     		movs	r0, #2
 253 0010 FFF7FEFF 		bl	ChannelController
 254              	.LVL24:
 129:main.c        **** }
 255              		.loc 1 129 0
 256              		@ sp needed
 257 0014 10BD     		pop	{r4, pc}
 258              		.cfi_endproc
 259              	.LFE34:
 260              		.size	TimeSlotInterrupt, .-TimeSlotInterrupt
 261 0016 C046     		.section	.text.UpdateChannelDescriptor,"ax",%progbits
 262              		.align	2
 263              		.global	UpdateChannelDescriptor
 264              		.code	16
 265              		.thumb_func
 266              		.type	UpdateChannelDescriptor, %function
 267              	UpdateChannelDescriptor:
ARM GAS  C:\Users\Acer\AppData\Local\Temp\ccW749wr.s 			page 8


 268              	.LFB35:
 130:main.c        **** // ==========================================================================================
 131:main.c        **** 
 132:main.c        **** /**************************************************************************
 133:main.c        ****  This function to update channel descriptors and pin state.
 134:main.c        ****  Counters D, H and L of all other channels are reset to the initial state
 135:main.c        ****  to start all channels synchronously.
 136:main.c        ****  Parameters:
 137:main.c        ****  ChannelNumber - channel to be updated;
 138:main.c        ****  D - new value of delay D;
 139:main.c        ****  H - new value of pulse duration H;
 140:main.c        ****  L - new value of pause duration L;
 141:main.c        **** **************************************************************************/
 142:main.c        **** void UpdateChannelDescriptor(uint8 D1, uint8 H1, uint8 L1, uint8 D2, uint8 H2, uint8 L2, uint8 D3, 
 143:main.c        **** {
 269              		.loc 1 143 0
 270              		.cfi_startproc
 271              		@ args = 20, pretend = 0, frame = 0
 272              		@ frame_needed = 0, uses_anonymous_args = 0
 273              	.LVL25:
 274 0000 F8B5     		push	{r3, r4, r5, r6, r7, lr}
 275              		.cfi_def_cfa_offset 24
 276              		.cfi_offset 3, -24
 277              		.cfi_offset 4, -20
 278              		.cfi_offset 5, -16
 279              		.cfi_offset 6, -12
 280              		.cfi_offset 7, -8
 281              		.cfi_offset 14, -4
 282 0002 4F46     		mov	r7, r9
 283 0004 4646     		mov	r6, r8
 284 0006 C0B4     		push	{r6, r7}
 285              		.cfi_def_cfa_offset 32
 286              		.cfi_offset 8, -32
 287              		.cfi_offset 9, -28
 288 0008 9846     		mov	r8, r3
 289 000a 08AB     		add	r3, sp, #32
 290              	.LVL26:
 291 000c 1B78     		ldrb	r3, [r3]
 292              	.LVL27:
 293 000e 9C46     		mov	ip, r3
 294 0010 09AB     		add	r3, sp, #36
 295              	.LVL28:
 296 0012 1B78     		ldrb	r3, [r3]
 297              	.LVL29:
 298 0014 9946     		mov	r9, r3
 299 0016 0AAC     		add	r4, sp, #40
 300              	.LVL30:
 301 0018 2778     		ldrb	r7, [r4]
 302 001a 0BAC     		add	r4, sp, #44
 303              	.LVL31:
 304 001c 2678     		ldrb	r6, [r4]
 305 001e 0CAC     		add	r4, sp, #48
 306              	.LVL32:
 307 0020 2578     		ldrb	r5, [r4]
 144:main.c        ****  /* Enter critical section to avoid interrupts during channel descriptors update */
 145:main.c        **** CyGlobalIntDisable; /* Disable global interrupts. */
 308              		.loc 1 145 0
ARM GAS  C:\Users\Acer\AppData\Local\Temp\ccW749wr.s 			page 9


 309              		.syntax divided
 310              	@ 145 "main.c" 1
 311 0022 72B6     		CPSID   i
 312              	@ 0 "" 2
 146:main.c        ****  /* Update channel descriptor values from the data received from UART */
 147:main.c        **** ChannelDescriptorsArray[FIRST_CHANNEL].Max_D = D1;
 313              		.loc 1 147 0
 314              		.thumb
 315              		.syntax unified
 316 0024 144C     		ldr	r4, .L11
 317              	.LVL33:
 318 0026 E070     		strb	r0, [r4, #3]
 148:main.c        **** ChannelDescriptorsArray[FIRST_CHANNEL].Max_H = H1; 
 319              		.loc 1 148 0
 320 0028 2171     		strb	r1, [r4, #4]
 149:main.c        **** ChannelDescriptorsArray[FIRST_CHANNEL].Max_L = L1;
 321              		.loc 1 149 0
 322 002a 6271     		strb	r2, [r4, #5]
 150:main.c        **** 
 151:main.c        **** ChannelDescriptorsArray[SECOND_CHANNEL].Max_D = D2;
 323              		.loc 1 151 0
 324 002c 4346     		mov	r3, r8
 325 002e E373     		strb	r3, [r4, #15]
 152:main.c        **** ChannelDescriptorsArray[SECOND_CHANNEL].Max_H = H2; 
 326              		.loc 1 152 0
 327 0030 6346     		mov	r3, ip
 328 0032 2374     		strb	r3, [r4, #16]
 153:main.c        **** ChannelDescriptorsArray[SECOND_CHANNEL].Max_L = L2;
 329              		.loc 1 153 0
 330 0034 4B46     		mov	r3, r9
 331 0036 6374     		strb	r3, [r4, #17]
 154:main.c        **** 
 155:main.c        **** ChannelDescriptorsArray[THIRD_CHANNEL].Max_D = D3;
 332              		.loc 1 155 0
 333 0038 E776     		strb	r7, [r4, #27]
 156:main.c        **** ChannelDescriptorsArray[THIRD_CHANNEL].Max_H = H3; 
 334              		.loc 1 156 0
 335 003a 2677     		strb	r6, [r4, #28]
 157:main.c        **** ChannelDescriptorsArray[THIRD_CHANNEL].Max_L = L3;
 336              		.loc 1 157 0
 337 003c 6577     		strb	r5, [r4, #29]
 158:main.c        ****  
 159:main.c        **** // ********************** FIRST CHANNEL **********************
 160:main.c        **** ChannelDescriptorsArray[FIRST_CHANNEL].Current_D = ChannelDescriptorsArray[FIRST_CHANNEL].Max_D;
 338              		.loc 1 160 0
 339 003e 2070     		strb	r0, [r4]
 161:main.c        **** ChannelDescriptorsArray[FIRST_CHANNEL].Current_H = ChannelDescriptorsArray[FIRST_CHANNEL].Max_H;
 340              		.loc 1 161 0
 341 0040 6170     		strb	r1, [r4, #1]
 162:main.c        **** ChannelDescriptorsArray[FIRST_CHANNEL].Current_L = ChannelDescriptorsArray[FIRST_CHANNEL].Max_L;
 342              		.loc 1 162 0
 343 0042 A270     		strb	r2, [r4, #2]
 163:main.c        ****  /* Reset output pin corresponding to this channel */
 164:main.c        **** ChannelDescriptorsArray[FIRST_CHANNEL].PinControlFunction(LED_OFF_VALUE);
 344              		.loc 1 164 0
 345 0044 0120     		movs	r0, #1
 346              	.LVL34:
ARM GAS  C:\Users\Acer\AppData\Local\Temp\ccW749wr.s 			page 10


 347 0046 A368     		ldr	r3, [r4, #8]
 348 0048 9847     		blx	r3
 349              	.LVL35:
 165:main.c        ****     
 166:main.c        **** // ********************** SECOND CHANNEL **********************
 167:main.c        **** ChannelDescriptorsArray[SECOND_CHANNEL].Current_D = ChannelDescriptorsArray[SECOND_CHANNEL].Max_D;
 350              		.loc 1 167 0
 351 004a E37B     		ldrb	r3, [r4, #15]
 352 004c 2373     		strb	r3, [r4, #12]
 168:main.c        **** ChannelDescriptorsArray[SECOND_CHANNEL].Current_H = ChannelDescriptorsArray[SECOND_CHANNEL].Max_H;
 353              		.loc 1 168 0
 354 004e 237C     		ldrb	r3, [r4, #16]
 355 0050 6373     		strb	r3, [r4, #13]
 169:main.c        **** ChannelDescriptorsArray[SECOND_CHANNEL].Current_L = ChannelDescriptorsArray[SECOND_CHANNEL].Max_L;
 356              		.loc 1 169 0
 357 0052 637C     		ldrb	r3, [r4, #17]
 358 0054 A373     		strb	r3, [r4, #14]
 170:main.c        ****  /* Reset output pin corresponding to this channel */
 171:main.c        **** ChannelDescriptorsArray[SECOND_CHANNEL].PinControlFunction(LED_OFF_VALUE);
 359              		.loc 1 171 0
 360 0056 0120     		movs	r0, #1
 361 0058 6369     		ldr	r3, [r4, #20]
 362 005a 9847     		blx	r3
 363              	.LVL36:
 172:main.c        **** 
 173:main.c        **** // ********************** SECOND CHANNEL **********************
 174:main.c        **** ChannelDescriptorsArray[THIRD_CHANNEL].Current_D = ChannelDescriptorsArray[THIRD_CHANNEL].Max_D;
 364              		.loc 1 174 0
 365 005c E37E     		ldrb	r3, [r4, #27]
 366 005e 2376     		strb	r3, [r4, #24]
 175:main.c        **** ChannelDescriptorsArray[THIRD_CHANNEL].Current_H = ChannelDescriptorsArray[THIRD_CHANNEL].Max_H;
 367              		.loc 1 175 0
 368 0060 237F     		ldrb	r3, [r4, #28]
 369 0062 6376     		strb	r3, [r4, #25]
 176:main.c        **** ChannelDescriptorsArray[THIRD_CHANNEL].Current_L = ChannelDescriptorsArray[THIRD_CHANNEL].Max_L;
 370              		.loc 1 176 0
 371 0064 637F     		ldrb	r3, [r4, #29]
 372 0066 A376     		strb	r3, [r4, #26]
 177:main.c        ****  /* Reset output pin corresponding to this channel */
 178:main.c        **** ChannelDescriptorsArray[THIRD_CHANNEL].PinControlFunction(LED_OFF_VALUE);
 373              		.loc 1 178 0
 374 0068 236A     		ldr	r3, [r4, #32]
 375 006a 0120     		movs	r0, #1
 376 006c 9847     		blx	r3
 377              	.LVL37:
 179:main.c        **** 
 180:main.c        ****  /* Exit critical section */
 181:main.c        **** CyGlobalIntEnable; /* Enable global interrupts. */
 378              		.loc 1 181 0
 379              		.syntax divided
 380              	@ 181 "main.c" 1
 381 006e 62B6     		CPSIE   i
 382              	@ 0 "" 2
 182:main.c        **** }
 383              		.loc 1 182 0
 384              		.thumb
 385              		.syntax unified
ARM GAS  C:\Users\Acer\AppData\Local\Temp\ccW749wr.s 			page 11


 386              		@ sp needed
 387 0070 0CBC     		pop	{r2, r3}
 388 0072 9046     		mov	r8, r2
 389 0074 9946     		mov	r9, r3
 390 0076 F8BD     		pop	{r3, r4, r5, r6, r7, pc}
 391              	.L12:
 392              		.align	2
 393              	.L11:
 394 0078 00000000 		.word	ChannelDescriptorsArray
 395              		.cfi_endproc
 396              	.LFE35:
 397              		.size	UpdateChannelDescriptor, .-UpdateChannelDescriptor
 398              		.section	.text.UartBufferParser,"ax",%progbits
 399              		.align	2
 400              		.global	UartBufferParser
 401              		.code	16
 402              		.thumb_func
 403              		.type	UartBufferParser, %function
 404              	UartBufferParser:
 405              	.LFB36:
 183:main.c        **** 
 184:main.c        **** // ==========================================================================================
 185:main.c        **** 
 186:main.c        **** void UartBufferParser(void)
 187:main.c        **** {
 406              		.loc 1 187 0
 407              		.cfi_startproc
 408              		@ args = 0, pretend = 0, frame = 8
 409              		@ frame_needed = 0, uses_anonymous_args = 0
 410 0000 F0B5     		push	{r4, r5, r6, r7, lr}
 411              		.cfi_def_cfa_offset 20
 412              		.cfi_offset 4, -20
 413              		.cfi_offset 5, -16
 414              		.cfi_offset 6, -12
 415              		.cfi_offset 7, -8
 416              		.cfi_offset 14, -4
 417 0002 5F46     		mov	r7, fp
 418 0004 5646     		mov	r6, r10
 419 0006 4D46     		mov	r5, r9
 420 0008 4446     		mov	r4, r8
 421 000a F0B4     		push	{r4, r5, r6, r7}
 422              		.cfi_def_cfa_offset 36
 423              		.cfi_offset 8, -36
 424              		.cfi_offset 9, -32
 425              		.cfi_offset 10, -28
 426              		.cfi_offset 11, -24
 427 000c 89B0     		sub	sp, sp, #36
 428              		.cfi_def_cfa_offset 72
 188:main.c        ****  uint8 ValueD1, ValueH1, ValueL1, ValueD2, ValueH2, ValueL2, ValueD3, ValueH3, ValueL3;
 189:main.c        ****     
 190:main.c        ****  ValueD1 = UartBuffer[UART_BUFFER_D1_VALUE_IDX] - ASCII_OFFSET_FOR_DIGITS;
 429              		.loc 1 190 0
 430 000e 4E4C     		ldr	r4, .L26
 431 0010 207A     		ldrb	r0, [r4, #8]
 432 0012 3038     		subs	r0, r0, #48
 433 0014 C0B2     		uxtb	r0, r0
 434              	.LVL38:
ARM GAS  C:\Users\Acer\AppData\Local\Temp\ccW749wr.s 			page 12


 191:main.c        ****  ValueH1 = UartBuffer[UART_BUFFER_H1_VALUE_IDX] - ASCII_OFFSET_FOR_DIGITS;
 435              		.loc 1 191 0
 436 0016 617A     		ldrb	r1, [r4, #9]
 437 0018 3039     		subs	r1, r1, #48
 438 001a C9B2     		uxtb	r1, r1
 439              	.LVL39:
 192:main.c        ****  ValueL1 = UartBuffer[UART_BUFFER_L1_VALUE_IDX] - ASCII_OFFSET_FOR_DIGITS;
 440              		.loc 1 192 0
 441 001c A27A     		ldrb	r2, [r4, #10]
 442 001e 303A     		subs	r2, r2, #48
 443 0020 D2B2     		uxtb	r2, r2
 444              	.LVL40:
 193:main.c        **** 
 194:main.c        ****  ValueD2 = UartBuffer[UART_BUFFER_D2_VALUE_IDX] - ASCII_OFFSET_FOR_DIGITS;
 445              		.loc 1 194 0
 446 0022 237B     		ldrb	r3, [r4, #12]
 447 0024 303B     		subs	r3, r3, #48
 448 0026 DBB2     		uxtb	r3, r3
 449 0028 9A46     		mov	r10, r3
 450              	.LVL41:
 195:main.c        ****  ValueH2 = UartBuffer[UART_BUFFER_H2_VALUE_IDX] - ASCII_OFFSET_FOR_DIGITS;
 451              		.loc 1 195 0
 452 002a 657B     		ldrb	r5, [r4, #13]
 453 002c 303D     		subs	r5, r5, #48
 454 002e EBB2     		uxtb	r3, r5
 455 0030 9B46     		mov	fp, r3
 456              	.LVL42:
 196:main.c        ****  ValueL2 = UartBuffer[UART_BUFFER_L2_VALUE_IDX] - ASCII_OFFSET_FOR_DIGITS;
 457              		.loc 1 196 0
 458 0032 A67B     		ldrb	r6, [r4, #14]
 459 0034 303E     		subs	r6, r6, #48
 460 0036 F6B2     		uxtb	r6, r6
 461              	.LVL43:
 197:main.c        **** 
 198:main.c        ****  ValueD3 = UartBuffer[UART_BUFFER_D3_VALUE_IDX] - ASCII_OFFSET_FOR_DIGITS;
 462              		.loc 1 198 0
 463 0038 277C     		ldrb	r7, [r4, #16]
 464 003a 303F     		subs	r7, r7, #48
 465 003c FFB2     		uxtb	r7, r7
 466              	.LVL44:
 199:main.c        ****  ValueH3 = UartBuffer[UART_BUFFER_H3_VALUE_IDX] - ASCII_OFFSET_FOR_DIGITS;
 467              		.loc 1 199 0
 468 003e 637C     		ldrb	r3, [r4, #17]
 469 0040 9C46     		mov	ip, r3
 470 0042 3023     		movs	r3, #48
 471 0044 5B42     		rsbs	r3, r3, #0
 472 0046 9846     		mov	r8, r3
 473 0048 C444     		add	ip, ip, r8
 474 004a 6346     		mov	r3, ip
 475 004c 6D46     		mov	r5, sp
 476 004e EB77     		strb	r3, [r5, #31]
 477 0050 EB7F     		ldrb	r3, [r5, #31]
 478 0052 9846     		mov	r8, r3
 479              	.LVL45:
 200:main.c        ****  ValueL3 = UartBuffer[UART_BUFFER_L3_VALUE_IDX] - ASCII_OFFSET_FOR_DIGITS;
 480              		.loc 1 200 0
 481 0054 A37C     		ldrb	r3, [r4, #18]
ARM GAS  C:\Users\Acer\AppData\Local\Temp\ccW749wr.s 			page 13


 482 0056 9C46     		mov	ip, r3
 483 0058 3023     		movs	r3, #48
 484 005a 5B42     		rsbs	r3, r3, #0
 485 005c 9946     		mov	r9, r3
 486 005e CC44     		add	ip, ip, r9
 487 0060 6346     		mov	r3, ip
 488 0062 EB77     		strb	r3, [r5, #31]
 489 0064 EB7F     		ldrb	r3, [r5, #31]
 490 0066 9C46     		mov	ip, r3
 491              	.LVL46:
 201:main.c        **** 
 202:main.c        ****  if ('A' != UartBuffer[UART_BUFFER_A_IDX])
 492              		.loc 1 202 0
 493 0068 2478     		ldrb	r4, [r4]
 494 006a 412C     		cmp	r4, #65
 495 006c 02D0     		beq	.L14
 203:main.c        ****     {
 204:main.c        ****         /* UART buffer content does not match to the expected value "A". Return. */
 205:main.c        ****         Error_Return();
 496              		.loc 1 205 0
 497 006e FFF7FEFF 		bl	Error_Return
 498              	.LVL47:
 206:main.c        ****         return;
 499              		.loc 1 206 0
 500 0072 61E0     		b	.L13
 501              	.LVL48:
 502              	.L14:
 207:main.c        ****     }
 208:main.c        ****  if ('T' != UartBuffer[UART_BUFFER_T_IDX])
 503              		.loc 1 208 0
 504 0074 344C     		ldr	r4, .L26
 505 0076 6478     		ldrb	r4, [r4, #1]
 506 0078 542C     		cmp	r4, #84
 507 007a 02D0     		beq	.L16
 209:main.c        ****     {
 210:main.c        ****         Error_Return();
 508              		.loc 1 210 0
 509 007c FFF7FEFF 		bl	Error_Return
 510              	.LVL49:
 211:main.c        ****         return;
 511              		.loc 1 211 0
 512 0080 5AE0     		b	.L13
 513              	.LVL50:
 514              	.L16:
 212:main.c        ****     }
 213:main.c        ****  if ('+' != UartBuffer[UART_BUFFER_PLUS_F_IDX])
 515              		.loc 1 213 0
 516 0082 314C     		ldr	r4, .L26
 517 0084 A478     		ldrb	r4, [r4, #2]
 518 0086 2B2C     		cmp	r4, #43
 519 0088 02D0     		beq	.L17
 214:main.c        ****     {
 215:main.c        ****         Error_Return();
 520              		.loc 1 215 0
 521 008a FFF7FEFF 		bl	Error_Return
 522              	.LVL51:
 216:main.c        ****         return;
ARM GAS  C:\Users\Acer\AppData\Local\Temp\ccW749wr.s 			page 14


 523              		.loc 1 216 0
 524 008e 53E0     		b	.L13
 525              	.LVL52:
 526              	.L17:
 217:main.c        ****     }
 218:main.c        ****  
 219:main.c        ****  if ('C' != UartBuffer[UART_BUFFER_C_IDX])
 527              		.loc 1 219 0
 528 0090 2D4C     		ldr	r4, .L26
 529 0092 E478     		ldrb	r4, [r4, #3]
 530 0094 432C     		cmp	r4, #67
 531 0096 02D0     		beq	.L18
 220:main.c        ****     {
 221:main.c        ****         Error_Return();
 532              		.loc 1 221 0
 533 0098 FFF7FEFF 		bl	Error_Return
 534              	.LVL53:
 222:main.c        ****         return;
 535              		.loc 1 222 0
 536 009c 4CE0     		b	.L13
 537              	.LVL54:
 538              	.L18:
 223:main.c        ****     }
 224:main.c        ****     
 225:main.c        ****  if ('O' != UartBuffer[UART_BUFFER_O_IDX])
 539              		.loc 1 225 0
 540 009e 2A4C     		ldr	r4, .L26
 541 00a0 2479     		ldrb	r4, [r4, #4]
 542 00a2 4F2C     		cmp	r4, #79
 543 00a4 02D0     		beq	.L19
 226:main.c        ****     {
 227:main.c        ****         Error_Return();
 544              		.loc 1 227 0
 545 00a6 FFF7FEFF 		bl	Error_Return
 546              	.LVL55:
 228:main.c        ****         return;
 547              		.loc 1 228 0
 548 00aa 45E0     		b	.L13
 549              	.LVL56:
 550              	.L19:
 229:main.c        ****     }
 230:main.c        ****     
 231:main.c        ****  if ('N' != UartBuffer[UART_BUFFER_N_IDX])
 551              		.loc 1 231 0
 552 00ac 264C     		ldr	r4, .L26
 553 00ae 6479     		ldrb	r4, [r4, #5]
 554 00b0 4E2C     		cmp	r4, #78
 555 00b2 02D0     		beq	.L20
 232:main.c        ****     {
 233:main.c        ****         Error_Return();
 556              		.loc 1 233 0
 557 00b4 FFF7FEFF 		bl	Error_Return
 558              	.LVL57:
 234:main.c        ****         return;
 559              		.loc 1 234 0
 560 00b8 3EE0     		b	.L13
 561              	.LVL58:
ARM GAS  C:\Users\Acer\AppData\Local\Temp\ccW749wr.s 			page 15


 562              	.L20:
 235:main.c        ****     }
 236:main.c        ****     
 237:main.c        ****  if ('F' != UartBuffer[UART_BUFFER_F_IDX])
 563              		.loc 1 237 0
 564 00ba 234C     		ldr	r4, .L26
 565 00bc A479     		ldrb	r4, [r4, #6]
 566 00be 462C     		cmp	r4, #70
 567 00c0 02D0     		beq	.L21
 238:main.c        ****     {
 239:main.c        ****         Error_Return();
 568              		.loc 1 239 0
 569 00c2 FFF7FEFF 		bl	Error_Return
 570              	.LVL59:
 240:main.c        ****         return;
 571              		.loc 1 240 0
 572 00c6 37E0     		b	.L13
 573              	.LVL60:
 574              	.L21:
 241:main.c        ****     }
 242:main.c        ****     
 243:main.c        ****  if ('=' != UartBuffer[UART_BUFFER_EQUALS_IDX])
 575              		.loc 1 243 0
 576 00c8 1F4C     		ldr	r4, .L26
 577 00ca E479     		ldrb	r4, [r4, #7]
 578 00cc 3D2C     		cmp	r4, #61
 579 00ce 02D0     		beq	.L22
 244:main.c        ****     {
 245:main.c        ****         Error_Return();
 580              		.loc 1 245 0
 581 00d0 FFF7FEFF 		bl	Error_Return
 582              	.LVL61:
 246:main.c        ****         return;
 583              		.loc 1 246 0
 584 00d4 30E0     		b	.L13
 585              	.LVL62:
 586              	.L22:
 247:main.c        ****     }
 248:main.c        ****  
 249:main.c        ****  if ('+' != UartBuffer[UART_BUFFER_PLUS_S_IDX])
 587              		.loc 1 249 0
 588 00d6 1C4C     		ldr	r4, .L26
 589 00d8 E47A     		ldrb	r4, [r4, #11]
 590 00da 2B2C     		cmp	r4, #43
 591 00dc 02D0     		beq	.L23
 250:main.c        ****     {
 251:main.c        ****         Error_Return();
 592              		.loc 1 251 0
 593 00de FFF7FEFF 		bl	Error_Return
 594              	.LVL63:
 252:main.c        ****         return;
 595              		.loc 1 252 0
 596 00e2 29E0     		b	.L13
 597              	.LVL64:
 598              	.L23:
 253:main.c        ****     }
 254:main.c        ****     
ARM GAS  C:\Users\Acer\AppData\Local\Temp\ccW749wr.s 			page 16


 255:main.c        ****  if ('+' != UartBuffer[UART_BUFFER_PLUS_T_IDX])
 599              		.loc 1 255 0
 600 00e4 184C     		ldr	r4, .L26
 601 00e6 E47B     		ldrb	r4, [r4, #15]
 602 00e8 2B2C     		cmp	r4, #43
 603 00ea 02D0     		beq	.L24
 256:main.c        ****     {
 257:main.c        ****         Error_Return();
 604              		.loc 1 257 0
 605 00ec FFF7FEFF 		bl	Error_Return
 606              	.LVL65:
 258:main.c        ****         return;
 607              		.loc 1 258 0
 608 00f0 22E0     		b	.L13
 609              	.LVL66:
 610              	.L24:
 259:main.c        ****     }
 260:main.c        ****     
 261:main.c        ****  if (ValueD1 >= 0 && ValueD1 <= 9 &&
 611              		.loc 1 261 0
 612 00f2 0928     		cmp	r0, #9
 613 00f4 1ED8     		bhi	.L25
 262:main.c        ****      ValueH1 >= 0 && ValueH1 <= 9 &&
 614              		.loc 1 262 0
 615 00f6 0929     		cmp	r1, #9
 616 00f8 1CD8     		bhi	.L25
 263:main.c        ****      ValueL1 >= 0 && ValueL1 <= 9 &&
 617              		.loc 1 263 0
 618 00fa 092A     		cmp	r2, #9
 619 00fc 1AD8     		bhi	.L25
 264:main.c        ****      ValueD2 >= 0 && ValueD2 <= 9 &&
 620              		.loc 1 264 0
 621 00fe 5346     		mov	r3, r10
 622 0100 092B     		cmp	r3, #9
 623 0102 17D8     		bhi	.L25
 265:main.c        ****      ValueH2 >= 0 && ValueH2 <= 9 &&
 624              		.loc 1 265 0
 625 0104 5B46     		mov	r3, fp
 626 0106 092B     		cmp	r3, #9
 627 0108 14D8     		bhi	.L25
 266:main.c        ****      ValueL2 >= 0 && ValueL2 <= 9 &&
 628              		.loc 1 266 0
 629 010a 092E     		cmp	r6, #9
 630 010c 12D8     		bhi	.L25
 267:main.c        ****      ValueD3 >= 0 && ValueD3 <= 9 &&
 631              		.loc 1 267 0
 632 010e 092F     		cmp	r7, #9
 633 0110 10D8     		bhi	.L25
 268:main.c        ****      ValueH3 >= 0 && ValueH3 <= 9 &&
 634              		.loc 1 268 0
 635 0112 4346     		mov	r3, r8
 636 0114 092B     		cmp	r3, #9
 637 0116 0DD8     		bhi	.L25
 269:main.c        ****      ValueL3 >= 0 && ValueL3 <= 9)
 638              		.loc 1 269 0
 639 0118 6346     		mov	r3, ip
 640 011a 092B     		cmp	r3, #9
ARM GAS  C:\Users\Acer\AppData\Local\Temp\ccW749wr.s 			page 17


 641 011c 0AD8     		bhi	.L25
 270:main.c        ****     {
 271:main.c        ****         /* Update channel descriptor with received values D, H and L */
 272:main.c        ****         UpdateChannelDescriptor(ValueD1, ValueH1, ValueL1, ValueD2, ValueH2, ValueL2, ValueD3, Valu
 642              		.loc 1 272 0
 643 011e 0493     		str	r3, [sp, #16]
 644 0120 4346     		mov	r3, r8
 645 0122 0393     		str	r3, [sp, #12]
 646 0124 0297     		str	r7, [sp, #8]
 647 0126 0196     		str	r6, [sp, #4]
 648 0128 5B46     		mov	r3, fp
 649 012a 0093     		str	r3, [sp]
 650 012c 5346     		mov	r3, r10
 651 012e FFF7FEFF 		bl	UpdateChannelDescriptor
 652              	.LVL67:
 653 0132 01E0     		b	.L13
 654              	.LVL68:
 655              	.L25:
 273:main.c        ****     }
 274:main.c        ****  else
 275:main.c        ****     {
 276:main.c        ****         Error_Return();
 656              		.loc 1 276 0
 657 0134 FFF7FEFF 		bl	Error_Return
 658              	.LVL69:
 659              	.L13:
 277:main.c        ****     }
 278:main.c        **** }
 660              		.loc 1 278 0
 661 0138 09B0     		add	sp, sp, #36
 662              		@ sp needed
 663              	.LVL70:
 664              	.LVL71:
 665              	.LVL72:
 666              	.LVL73:
 667              	.LVL74:
 668              	.LVL75:
 669 013a 3CBC     		pop	{r2, r3, r4, r5}
 670 013c 9046     		mov	r8, r2
 671 013e 9946     		mov	r9, r3
 672 0140 A246     		mov	r10, r4
 673 0142 AB46     		mov	fp, r5
 674 0144 F0BD     		pop	{r4, r5, r6, r7, pc}
 675              	.L27:
 676 0146 C046     		.align	2
 677              	.L26:
 678 0148 00000000 		.word	UartBuffer
 679              		.cfi_endproc
 680              	.LFE36:
 681              		.size	UartBufferParser, .-UartBufferParser
 682              		.section	.text.UartDataReader,"ax",%progbits
 683              		.align	2
 684              		.global	UartDataReader
 685              		.code	16
 686              		.thumb_func
 687              		.type	UartDataReader, %function
 688              	UartDataReader:
ARM GAS  C:\Users\Acer\AppData\Local\Temp\ccW749wr.s 			page 18


 689              	.LFB37:
 279:main.c        **** // ==========================================================================================
 280:main.c        **** 
 281:main.c        **** void UartDataReader(void)
 282:main.c        **** {
 690              		.loc 1 282 0
 691              		.cfi_startproc
 692              		@ args = 0, pretend = 0, frame = 0
 693              		@ frame_needed = 0, uses_anonymous_args = 0
 694 0000 10B5     		push	{r4, lr}
 695              		.cfi_def_cfa_offset 8
 696              		.cfi_offset 4, -8
 697              		.cfi_offset 14, -4
 698              	.LVL76:
 283:main.c        ****  char CurrentCharacter = 0;
 284:main.c        ****  CurrentCharacter = UART_1_UartGetChar();
 699              		.loc 1 284 0
 700 0002 FFF7FEFF 		bl	UART_1_UartGetChar
 701              	.LVL77:
 702 0006 C4B2     		uxtb	r4, r0
 703              	.LVL78:
 285:main.c        ****  if (0 == CurrentCharacter)
 704              		.loc 1 285 0
 705 0008 002C     		cmp	r4, #0
 706 000a 19D0     		beq	.L28
 286:main.c        ****  {
 287:main.c        ****     /* If current character equal to zero it means that no data received from UART.
 288:main.c        ****     Return from the function. */
 289:main.c        ****     return;
 290:main.c        ****  }
 291:main.c        ****  
 292:main.c        ****  /* Send back received character to see it in the terminal */
 293:main.c        ****  UART_1_UartPutChar(CurrentCharacter);
 707              		.loc 1 293 0
 708 000c FF23     		movs	r3, #255
 709 000e 1840     		ands	r0, r3
 710 0010 FFF7FEFF 		bl	UART_1_SpiUartWriteTxData
 711              	.LVL79:
 294:main.c        ****  
 295:main.c        ****  /* Check if received character is "A" (== indicator of packet begin) */
 296:main.c        ****  if ('A' == CurrentCharacter)
 712              		.loc 1 296 0
 713 0014 412C     		cmp	r4, #65
 714 0016 02D1     		bne	.L30
 297:main.c        ****  {
 298:main.c        ****     /* UART received character "A". Reset index to begin of the UART buffer */
 299:main.c        ****     UartBufferIdx = 0;
 715              		.loc 1 299 0
 716 0018 0022     		movs	r2, #0
 717 001a 0A4B     		ldr	r3, .L31
 718 001c 1A70     		strb	r2, [r3]
 719              	.L30:
 300:main.c        ****  }
 301:main.c        ****  /* Put received character to UART buffer and increment index. */
 302:main.c        ****  UartBuffer[UartBufferIdx] = CurrentCharacter;
 720              		.loc 1 302 0
 721 001e 094A     		ldr	r2, .L31
ARM GAS  C:\Users\Acer\AppData\Local\Temp\ccW749wr.s 			page 19


 722 0020 1378     		ldrb	r3, [r2]
 723 0022 0949     		ldr	r1, .L31+4
 724 0024 CC54     		strb	r4, [r1, r3]
 303:main.c        ****  UartBufferIdx++;
 725              		.loc 1 303 0
 726 0026 0133     		adds	r3, r3, #1
 727 0028 DBB2     		uxtb	r3, r3
 728 002a 1370     		strb	r3, [r2]
 304:main.c        ****  
 305:main.c        ****  /* Check if UART buffer is filled */
 306:main.c        ****  if (UART_BUFFER_SIZE == UartBufferIdx)
 729              		.loc 1 306 0
 730 002c 132B     		cmp	r3, #19
 731 002e 07D1     		bne	.L28
 307:main.c        ****  {
 308:main.c        ****     /* UART buffer is full. Start parse this buffer. */
 309:main.c        ****     UartBufferParser();
 732              		.loc 1 309 0
 733 0030 FFF7FEFF 		bl	UartBufferParser
 734              	.LVL80:
 310:main.c        ****     /* Reset index to begin of the UART buffer */
 311:main.c        ****     UartBufferIdx = 0;
 735              		.loc 1 311 0
 736 0034 0022     		movs	r2, #0
 737 0036 034B     		ldr	r3, .L31
 738 0038 1A70     		strb	r2, [r3]
 312:main.c        ****     UART_1_UartPutChar(' '); // To separate the input of AT-commands
 739              		.loc 1 312 0
 740 003a 2020     		movs	r0, #32
 741 003c FFF7FEFF 		bl	UART_1_SpiUartWriteTxData
 742              	.LVL81:
 743              	.L28:
 313:main.c        ****  }
 314:main.c        **** }
 744              		.loc 1 314 0
 745              		@ sp needed
 746              	.LVL82:
 747 0040 10BD     		pop	{r4, pc}
 748              	.L32:
 749 0042 C046     		.align	2
 750              	.L31:
 751 0044 00000000 		.word	UartBufferIdx
 752 0048 00000000 		.word	UartBuffer
 753              		.cfi_endproc
 754              	.LFE37:
 755              		.size	UartDataReader, .-UartDataReader
 756              		.section	.text.Init,"ax",%progbits
 757              		.align	2
 758              		.global	Init
 759              		.code	16
 760              		.thumb_func
 761              		.type	Init, %function
 762              	Init:
 763              	.LFB38:
 315:main.c        **** 
 316:main.c        **** // ==========================================================================================
 317:main.c        **** 
ARM GAS  C:\Users\Acer\AppData\Local\Temp\ccW749wr.s 			page 20


 318:main.c        **** /**************************************************************************
 319:main.c        ****  This function performs generic initialization.
 320:main.c        **** **************************************************************************/
 321:main.c        **** void Init(void)
 322:main.c        **** {
 764              		.loc 1 322 0
 765              		.cfi_startproc
 766              		@ args = 0, pretend = 0, frame = 0
 767              		@ frame_needed = 0, uses_anonymous_args = 0
 768 0000 10B5     		push	{r4, lr}
 769              		.cfi_def_cfa_offset 8
 770              		.cfi_offset 4, -8
 771              		.cfi_offset 14, -4
 323:main.c        ****  /* Assign pin control functions to the channel descriptors. */
 324:main.c        ****  ChannelDescriptorsArray[0].PinControlFunction = Blue_Output_Write;
 772              		.loc 1 324 0
 773 0002 074B     		ldr	r3, .L34
 774 0004 074A     		ldr	r2, .L34+4
 775 0006 9A60     		str	r2, [r3, #8]
 325:main.c        ****  ChannelDescriptorsArray[1].PinControlFunction = Green_Output_Write;
 776              		.loc 1 325 0
 777 0008 074A     		ldr	r2, .L34+8
 778 000a 5A61     		str	r2, [r3, #20]
 326:main.c        ****  ChannelDescriptorsArray[2].PinControlFunction = Red_Output_Write;
 779              		.loc 1 326 0
 780 000c 074A     		ldr	r2, .L34+12
 781 000e 1A62     		str	r2, [r3, #32]
 327:main.c        **** 
 328:main.c        ****  /* UART component start */
 329:main.c        ****  UART_1_Start();
 782              		.loc 1 329 0
 783 0010 FFF7FEFF 		bl	UART_1_Start
 784              	.LVL83:
 330:main.c        **** 
 331:main.c        ****  /* Start Interrupt component */
 332:main.c        ****  isr_1_StartEx(TimeSlotInterrupt);
 785              		.loc 1 332 0
 786 0014 0648     		ldr	r0, .L34+16
 787 0016 FFF7FEFF 		bl	isr_1_StartEx
 788              	.LVL84:
 333:main.c        **** 
 334:main.c        ****  /* Start component Timer */
 335:main.c        ****  Timer_1_Start();
 789              		.loc 1 335 0
 790 001a FFF7FEFF 		bl	Timer_1_Start
 791              	.LVL85:
 336:main.c        **** }
 792              		.loc 1 336 0
 793              		@ sp needed
 794 001e 10BD     		pop	{r4, pc}
 795              	.L35:
 796              		.align	2
 797              	.L34:
 798 0020 00000000 		.word	ChannelDescriptorsArray
 799 0024 00000000 		.word	Blue_Output_Write
 800 0028 00000000 		.word	Green_Output_Write
 801 002c 00000000 		.word	Red_Output_Write
ARM GAS  C:\Users\Acer\AppData\Local\Temp\ccW749wr.s 			page 21


 802 0030 00000000 		.word	TimeSlotInterrupt
 803              		.cfi_endproc
 804              	.LFE38:
 805              		.size	Init, .-Init
 806              		.section	.text.main,"ax",%progbits
 807              		.align	2
 808              		.global	main
 809              		.code	16
 810              		.thumb_func
 811              		.type	main, %function
 812              	main:
 813              	.LFB39:
 337:main.c        **** 
 338:main.c        **** int main(void)
 339:main.c        **** {
 814              		.loc 1 339 0
 815              		.cfi_startproc
 816              		@ Volatile: function does not return.
 817              		@ args = 0, pretend = 0, frame = 0
 818              		@ frame_needed = 0, uses_anonymous_args = 0
 819 0000 10B5     		push	{r4, lr}
 820              		.cfi_def_cfa_offset 8
 821              		.cfi_offset 4, -8
 822              		.cfi_offset 14, -4
 340:main.c        ****  CyGlobalIntEnable; /* Enable global interrupts. */
 823              		.loc 1 340 0
 824              		.syntax divided
 825              	@ 340 "main.c" 1
 826 0002 62B6     		CPSIE   i
 827              	@ 0 "" 2
 341:main.c        ****  Red_Output_Write(1);
 828              		.loc 1 341 0
 829              		.thumb
 830              		.syntax unified
 831 0004 0120     		movs	r0, #1
 832 0006 FFF7FEFF 		bl	Red_Output_Write
 833              	.LVL86:
 342:main.c        ****  Blue_Output_Write(1);
 834              		.loc 1 342 0
 835 000a 0120     		movs	r0, #1
 836 000c FFF7FEFF 		bl	Blue_Output_Write
 837              	.LVL87:
 343:main.c        ****  Green_Output_Write(1);
 838              		.loc 1 343 0
 839 0010 0120     		movs	r0, #1
 840 0012 FFF7FEFF 		bl	Green_Output_Write
 841              	.LVL88:
 344:main.c        ****  /* Perform generic initialization */
 345:main.c        ****  Init();
 842              		.loc 1 345 0
 843 0016 FFF7FEFF 		bl	Init
 844              	.LVL89:
 845              	.L37:
 346:main.c        **** 
 347:main.c        ****  /* Infinite loop */
 348:main.c        ****  for(;;)
 349:main.c        ****  {
ARM GAS  C:\Users\Acer\AppData\Local\Temp\ccW749wr.s 			page 22


 350:main.c        ****     UartDataReader(); 
 846              		.loc 1 350 0 discriminator 1
 847 001a FFF7FEFF 		bl	UartDataReader
 848              	.LVL90:
 849 001e FCE7     		b	.L37
 850              		.cfi_endproc
 851              	.LFE39:
 852              		.size	main, .-main
 853              		.comm	UartBufferIdx,1,1
 854              		.comm	UartBuffer,19,4
 855              		.comm	ChannelDescriptorsArray,36,4
 856              		.text
 857              	.Letext0:
 858              		.file 2 "Generated_Source\\PSoC4/cytypes.h"
 859              		.file 3 "Generated_Source\\PSoC4/UART_1_SPI_UART.h"
 860              		.file 4 "Generated_Source\\PSoC4/UART_1.h"
 861              		.file 5 "Generated_Source\\PSoC4/isr_1.h"
 862              		.file 6 "Generated_Source\\PSoC4/Timer_1.h"
 863              		.file 7 "Generated_Source\\PSoC4/Red_Output.h"
 864              		.file 8 "Generated_Source\\PSoC4/Blue_Output.h"
 865              		.file 9 "Generated_Source\\PSoC4/Green_Output.h"