ARM GAS  C:\Users\Acer\AppData\Local\Temp\ccxzIaol.s 			page 1


   1              		.syntax unified
   2              		.cpu cortex-m0
   3              		.fpu softvfp
   4              		.eabi_attribute 20, 1
   5              		.eabi_attribute 21, 1
   6              		.eabi_attribute 23, 3
   7              		.eabi_attribute 24, 1
   8              		.eabi_attribute 25, 1
   9              		.eabi_attribute 26, 1
  10              		.eabi_attribute 30, 1
  11              		.eabi_attribute 34, 0
  12              		.eabi_attribute 18, 4
  13              		.thumb
  14              		.syntax unified
  15              		.file	"main.c"
  16              		.text
  17              	.Ltext0:
  18              		.cfi_sections	.debug_frame
  19              		.section	.text.Error_Return,"ax",%progbits
  20              		.align	2
  21              		.global	Error_Return
  22              		.code	16
  23              		.thumb_func
  24              		.type	Error_Return, %function
  25              	Error_Return:
  26              	.LFB32:
  27              		.file 1 "main.c"
   1:main.c        **** #include "project.h"
   2:main.c        **** /* Number of channnels */
   3:main.c        **** #define NUMBER_OF_CHANNELS (4)
   4:main.c        **** /* The argument of the Pin_Write API to turn on the LED */
   5:main.c        **** #define LED_ON_VALUE (0)
   6:main.c        **** /* The argument of the Pin_Write API to turn off the LED */
   7:main.c        **** #define LED_OFF_VALUE (1)
   8:main.c        **** /* Size of UART buffer */
   9:main.c        **** #define UART_BUFFER_SIZE (10)
  10:main.c        **** /* UART buffer indeces */
  11:main.c        **** #define UART_BUFFER_A_IDX (0)
  12:main.c        **** #define UART_BUFFER_T_IDX (1)
  13:main.c        **** #define UART_BUFFER_PLUS_IDX (2) // PLUS - Symbol "+"
  14:main.c        **** #define UART_BUFFER_C_IDX (3)
  15:main.c        **** #define UART_BUFFER_H_IDX (4)
  16:main.c        **** #define UART_BUFFER_CHANNEL_IDX (5)
  17:main.c        **** #define UART_BUFFER_EQUALS_IDX (6) // EQUALS - Symbol "="
  18:main.c        **** #define UART_BUFFER_D_VALUE_IDX (7)
  19:main.c        **** #define UART_BUFFER_H_VALUE_IDX (8)
  20:main.c        **** #define UART_BUFFER_L_VALUE_IDX (9)
  21:main.c        **** /* ASCII offset for digits. ASCII code of 0 in ASCII table. */
  22:main.c        **** #define ASCII_OFFSET_FOR_DIGITS (48)
  23:main.c        **** /* Channel Descriptor Type */
  24:main.c        **** typedef struct
  25:main.c        **** {
  26:main.c        ****  uint8 Current_D; /* Counter of state D duration */
  27:main.c        ****  uint8 Current_H; /* Counter of state H duration */
  28:main.c        ****  uint8 Current_L; /* Counter of state L duration */
  29:main.c        ****  uint8 Max_D; /* Maximum state D duration */
  30:main.c        ****  uint8 Max_H; /* Maximum state H duration */
ARM GAS  C:\Users\Acer\AppData\Local\Temp\ccxzIaol.s 			page 2


  31:main.c        ****  uint8 Max_L; /* Maximum state L duration */
  32:main.c        ****  void (*PinControlFunction)(uint8); /* Pointer to pin control function */
  33:main.c        **** } ChannelDescriptorType;
  34:main.c        **** 
  35:main.c        **** /* Channels descriptors array with size of channels number */
  36:main.c        **** ChannelDescriptorType ChannelDescriptorsArray[NUMBER_OF_CHANNELS];
  37:main.c        **** /* Buffer to store data from UART */
  38:main.c        **** char UartBuffer[UART_BUFFER_SIZE];
  39:main.c        **** /* Index to the current UART buffer element */
  40:main.c        **** uint8 UartBufferIdx;
  41:main.c        **** 
  42:main.c        **** /* This function notifies the user that an incorrect AT-command has been entered */
  43:main.c        **** void Error_Return(void)
  44:main.c        **** {
  28              		.loc 1 44 0
  29              		.cfi_startproc
  30              		@ args = 0, pretend = 0, frame = 0
  31              		@ frame_needed = 0, uses_anonymous_args = 0
  32 0000 10B5     		push	{r4, lr}
  33              		.cfi_def_cfa_offset 8
  34              		.cfi_offset 4, -8
  35              		.cfi_offset 14, -4
  45:main.c        ****     UART_1_UartPutChar('\n');
  36              		.loc 1 45 0
  37 0002 0A20     		movs	r0, #10
  38 0004 FFF7FEFF 		bl	UART_1_SpiUartWriteTxData
  39              	.LVL0:
  46:main.c        ****     UART_1_UartPutChar('\r');
  40              		.loc 1 46 0
  41 0008 0D20     		movs	r0, #13
  42 000a FFF7FEFF 		bl	UART_1_SpiUartWriteTxData
  43              	.LVL1:
  47:main.c        ****     UART_1_UartPutChar(' ');
  44              		.loc 1 47 0
  45 000e 2020     		movs	r0, #32
  46 0010 FFF7FEFF 		bl	UART_1_SpiUartWriteTxData
  47              	.LVL2:
  48:main.c        ****     UART_1_UartPutChar('E');
  48              		.loc 1 48 0
  49 0014 4520     		movs	r0, #69
  50 0016 FFF7FEFF 		bl	UART_1_SpiUartWriteTxData
  51              	.LVL3:
  49:main.c        ****     UART_1_UartPutChar('r');
  52              		.loc 1 49 0
  53 001a 7220     		movs	r0, #114
  54 001c FFF7FEFF 		bl	UART_1_SpiUartWriteTxData
  55              	.LVL4:
  50:main.c        ****     UART_1_UartPutChar('r');
  56              		.loc 1 50 0
  57 0020 7220     		movs	r0, #114
  58 0022 FFF7FEFF 		bl	UART_1_SpiUartWriteTxData
  59              	.LVL5:
  51:main.c        ****     UART_1_UartPutChar('o');
  60              		.loc 1 51 0
  61 0026 6F20     		movs	r0, #111
  62 0028 FFF7FEFF 		bl	UART_1_SpiUartWriteTxData
  63              	.LVL6:
ARM GAS  C:\Users\Acer\AppData\Local\Temp\ccxzIaol.s 			page 3


  52:main.c        ****     UART_1_UartPutChar('r');
  64              		.loc 1 52 0
  65 002c 7220     		movs	r0, #114
  66 002e FFF7FEFF 		bl	UART_1_SpiUartWriteTxData
  67              	.LVL7:
  53:main.c        ****     UART_1_UartPutChar(' ');
  68              		.loc 1 53 0
  69 0032 2020     		movs	r0, #32
  70 0034 FFF7FEFF 		bl	UART_1_SpiUartWriteTxData
  71              	.LVL8:
  54:main.c        ****     UART_1_UartPutChar('\n');
  72              		.loc 1 54 0
  73 0038 0A20     		movs	r0, #10
  74 003a FFF7FEFF 		bl	UART_1_SpiUartWriteTxData
  75              	.LVL9:
  55:main.c        ****     UART_1_UartPutChar('\r');
  76              		.loc 1 55 0
  77 003e 0D20     		movs	r0, #13
  78 0040 FFF7FEFF 		bl	UART_1_SpiUartWriteTxData
  79              	.LVL10:
  56:main.c        **** }
  80              		.loc 1 56 0
  81              		@ sp needed
  82 0044 10BD     		pop	{r4, pc}
  83              		.cfi_endproc
  84              	.LFE32:
  85              		.size	Error_Return, .-Error_Return
  86 0046 C046     		.section	.text.ChannelController,"ax",%progbits
  87              		.align	2
  88              		.global	ChannelController
  89              		.code	16
  90              		.thumb_func
  91              		.type	ChannelController, %function
  92              	ChannelController:
  93              	.LFB33:
  57:main.c        **** 
  58:main.c        **** /**************************************************************************
  59:main.c        ****  This function perfoms channel control.
  60:main.c        ****  It decrements counters D, H or L and toggles pin state when required.
  61:main.c        **** **************************************************************************/
  62:main.c        **** void ChannelController(uint8 Channel_Number)
  63:main.c        **** {
  94              		.loc 1 63 0
  95              		.cfi_startproc
  96              		@ args = 0, pretend = 0, frame = 0
  97              		@ frame_needed = 0, uses_anonymous_args = 0
  98              	.LVL11:
  99 0000 70B5     		push	{r4, r5, r6, lr}
 100              		.cfi_def_cfa_offset 16
 101              		.cfi_offset 4, -16
 102              		.cfi_offset 5, -12
 103              		.cfi_offset 6, -8
 104              		.cfi_offset 14, -4
  64:main.c        ****     if(ChannelDescriptorsArray[Channel_Number].Current_D > 0)
 105              		.loc 1 64 0
 106 0002 4300     		lsls	r3, r0, #1
 107 0004 1B18     		adds	r3, r3, r0
ARM GAS  C:\Users\Acer\AppData\Local\Temp\ccxzIaol.s 			page 4


 108 0006 9A00     		lsls	r2, r3, #2
 109 0008 254B     		ldr	r3, .L7
 110 000a D15C     		ldrb	r1, [r2, r3]
 111 000c 0029     		cmp	r1, #0
 112 000e 0AD0     		beq	.L3
  65:main.c        ****     {
  66:main.c        ****         ChannelDescriptorsArray[Channel_Number].Current_D--;
 113              		.loc 1 66 0
 114 0010 1A00     		movs	r2, r3
 115 0012 4300     		lsls	r3, r0, #1
 116 0014 1D18     		adds	r5, r3, r0
 117 0016 AC00     		lsls	r4, r5, #2
 118 0018 0139     		subs	r1, r1, #1
 119 001a A154     		strb	r1, [r4, r2]
  67:main.c        ****         ChannelDescriptorsArray[Channel_Number].PinControlFunction(LED_OFF_VALUE);
 120              		.loc 1 67 0
 121 001c 1319     		adds	r3, r2, r4
 122 001e 9B68     		ldr	r3, [r3, #8]
 123 0020 0120     		movs	r0, #1
 124              	.LVL12:
 125 0022 9847     		blx	r3
 126              	.LVL13:
  68:main.c        ****         return;
 127              		.loc 1 68 0
 128 0024 3AE0     		b	.L2
 129              	.LVL14:
 130              	.L3:
  69:main.c        ****     }
  70:main.c        ****     if(ChannelDescriptorsArray[Channel_Number].Current_H > 0)
 131              		.loc 1 70 0
 132 0026 4200     		lsls	r2, r0, #1
 133 0028 1218     		adds	r2, r2, r0
 134 002a 9300     		lsls	r3, r2, #2
 135 002c 1C4A     		ldr	r2, .L7
 136 002e D318     		adds	r3, r2, r3
 137 0030 5C78     		ldrb	r4, [r3, #1]
 138 0032 002C     		cmp	r4, #0
 139 0034 0AD0     		beq	.L5
  71:main.c        ****     {
  72:main.c        ****         ChannelDescriptorsArray[Channel_Number].Current_H--;
 140              		.loc 1 72 0
 141 0036 1100     		movs	r1, r2
 142 0038 4300     		lsls	r3, r0, #1
 143 003a 1D18     		adds	r5, r3, r0
 144 003c AA00     		lsls	r2, r5, #2
 145 003e 8A18     		adds	r2, r1, r2
 146 0040 013C     		subs	r4, r4, #1
 147 0042 5470     		strb	r4, [r2, #1]
  73:main.c        ****         ChannelDescriptorsArray[Channel_Number].PinControlFunction(LED_ON_VALUE);
 148              		.loc 1 73 0
 149 0044 9368     		ldr	r3, [r2, #8]
 150 0046 0020     		movs	r0, #0
 151              	.LVL15:
 152 0048 9847     		blx	r3
 153              	.LVL16:
  74:main.c        ****         return;
 154              		.loc 1 74 0
ARM GAS  C:\Users\Acer\AppData\Local\Temp\ccxzIaol.s 			page 5


 155 004a 27E0     		b	.L2
 156              	.LVL17:
 157              	.L5:
  75:main.c        ****     }
  76:main.c        ****     if(ChannelDescriptorsArray[Channel_Number].Current_L > 0)
 158              		.loc 1 76 0
 159 004c 4200     		lsls	r2, r0, #1
 160 004e 1218     		adds	r2, r2, r0
 161 0050 9300     		lsls	r3, r2, #2
 162 0052 134A     		ldr	r2, .L7
 163 0054 D318     		adds	r3, r2, r3
 164 0056 9B78     		ldrb	r3, [r3, #2]
 165 0058 002B     		cmp	r3, #0
 166 005a 0AD0     		beq	.L6
  77:main.c        ****     {
  78:main.c        ****         ChannelDescriptorsArray[Channel_Number].Current_L--;
 167              		.loc 1 78 0
 168 005c 1400     		movs	r4, r2
 169 005e 4200     		lsls	r2, r0, #1
 170 0060 1518     		adds	r5, r2, r0
 171 0062 A900     		lsls	r1, r5, #2
 172 0064 6118     		adds	r1, r4, r1
 173 0066 013B     		subs	r3, r3, #1
 174 0068 8B70     		strb	r3, [r1, #2]
  79:main.c        ****         ChannelDescriptorsArray[Channel_Number].PinControlFunction(LED_OFF_VALUE);
 175              		.loc 1 79 0
 176 006a 8B68     		ldr	r3, [r1, #8]
 177 006c 0120     		movs	r0, #1
 178              	.LVL18:
 179 006e 9847     		blx	r3
 180              	.LVL19:
  80:main.c        ****         return;
 181              		.loc 1 80 0
 182 0070 14E0     		b	.L2
 183              	.LVL20:
 184              	.L6:
  81:main.c        ****     }
  82:main.c        ****     
  83:main.c        ****     if (     ChannelDescriptorsArray[Channel_Number].Current_D == 0 && 
 185              		.loc 1 83 0
 186 0072 0029     		cmp	r1, #0
 187 0074 12D1     		bne	.L2
 188              		.loc 1 83 0 is_stmt 0 discriminator 1
 189 0076 002C     		cmp	r4, #0
 190 0078 10D1     		bne	.L2
  84:main.c        ****              ChannelDescriptorsArray[Channel_Number].Current_H == 0 && 
 191              		.loc 1 84 0 is_stmt 1
 192 007a 002B     		cmp	r3, #0
 193 007c 0ED1     		bne	.L2
  85:main.c        ****              ChannelDescriptorsArray[Channel_Number].Current_L == 0)
  86:main.c        ****     {
  87:main.c        ****     ChannelDescriptorsArray[Channel_Number].Current_D = 
  88:main.c        ****     ChannelDescriptorsArray[Channel_Number].Max_D;
 194              		.loc 1 88 0
 195 007e 084A     		ldr	r2, .L7
 196 0080 4100     		lsls	r1, r0, #1
 197 0082 0C18     		adds	r4, r1, r0
ARM GAS  C:\Users\Acer\AppData\Local\Temp\ccxzIaol.s 			page 6


 198 0084 A300     		lsls	r3, r4, #2
 199 0086 D318     		adds	r3, r2, r3
 200 0088 DE78     		ldrb	r6, [r3, #3]
  87:main.c        ****     ChannelDescriptorsArray[Channel_Number].Max_D;
 201              		.loc 1 87 0
 202 008a 2500     		movs	r5, r4
 203 008c A400     		lsls	r4, r4, #2
 204 008e A654     		strb	r6, [r4, r2]
  89:main.c        ****     
  90:main.c        ****     ChannelDescriptorsArray[Channel_Number].Current_H = 
  91:main.c        ****     ChannelDescriptorsArray[Channel_Number].Max_H;
 205              		.loc 1 91 0
 206 0090 1C79     		ldrb	r4, [r3, #4]
  90:main.c        ****     ChannelDescriptorsArray[Channel_Number].Max_H;
 207              		.loc 1 90 0
 208 0092 5C70     		strb	r4, [r3, #1]
  92:main.c        ****     
  93:main.c        ****     ChannelDescriptorsArray[Channel_Number].Current_L = 
  94:main.c        ****     ChannelDescriptorsArray[Channel_Number].Max_L;
 209              		.loc 1 94 0
 210 0094 5C79     		ldrb	r4, [r3, #5]
  93:main.c        ****     ChannelDescriptorsArray[Channel_Number].Max_L;
 211              		.loc 1 93 0
 212 0096 AB00     		lsls	r3, r5, #2
 213 0098 D318     		adds	r3, r2, r3
 214 009a 9C70     		strb	r4, [r3, #2]
 215              	.LVL21:
 216              	.L2:
  95:main.c        **** 
  96:main.c        ****     return;
  97:main.c        ****     }
  98:main.c        **** }
 217              		.loc 1 98 0
 218              		@ sp needed
 219 009c 70BD     		pop	{r4, r5, r6, pc}
 220              	.L8:
 221 009e C046     		.align	2
 222              	.L7:
 223 00a0 00000000 		.word	ChannelDescriptorsArray
 224              		.cfi_endproc
 225              	.LFE33:
 226              		.size	ChannelController, .-ChannelController
 227              		.section	.text.TimeSlotInterrupt,"ax",%progbits
 228              		.align	2
 229              		.global	TimeSlotInterrupt
 230              		.code	16
 231              		.thumb_func
 232              		.type	TimeSlotInterrupt, %function
 233              	TimeSlotInterrupt:
 234              	.LFB34:
  99:main.c        **** /**************************************************************************
 100:main.c        ****  Interrupt Handler called every 500ms
 101:main.c        **** **************************************************************************/
 102:main.c        **** CY_ISR(TimeSlotInterrupt)
 103:main.c        **** {
 235              		.loc 1 103 0
 236              		.cfi_startproc
ARM GAS  C:\Users\Acer\AppData\Local\Temp\ccxzIaol.s 			page 7


 237              		@ args = 0, pretend = 0, frame = 0
 238              		@ frame_needed = 0, uses_anonymous_args = 0
 239 0000 10B5     		push	{r4, lr}
 240              		.cfi_def_cfa_offset 8
 241              		.cfi_offset 4, -8
 242              		.cfi_offset 14, -4
 243              	.LVL22:
 104:main.c        ****  uint8 CurrentChannelNumber;
 105:main.c        ****  /* Call Channel controller function for each of channel */
 106:main.c        ****  for (CurrentChannelNumber = 0;
 244              		.loc 1 106 0
 245 0002 0024     		movs	r4, #0
 246 0004 04E0     		b	.L10
 247              	.LVL23:
 248              	.L11:
 107:main.c        ****  CurrentChannelNumber < NUMBER_OF_CHANNELS;
 108:main.c        ****  CurrentChannelNumber++)
 109:main.c        ****  {
 110:main.c        ****     ChannelController(CurrentChannelNumber);
 249              		.loc 1 110 0
 250 0006 2000     		movs	r0, r4
 251 0008 FFF7FEFF 		bl	ChannelController
 252              	.LVL24:
 108:main.c        ****  {
 253              		.loc 1 108 0
 254 000c 0134     		adds	r4, r4, #1
 255              	.LVL25:
 256 000e E4B2     		uxtb	r4, r4
 257              	.LVL26:
 258              	.L10:
 106:main.c        ****  CurrentChannelNumber < NUMBER_OF_CHANNELS;
 259              		.loc 1 106 0 discriminator 1
 260 0010 032C     		cmp	r4, #3
 261 0012 F8D9     		bls	.L11
 111:main.c        ****  }
 112:main.c        **** }
 262              		.loc 1 112 0
 263              		@ sp needed
 264              	.LVL27:
 265 0014 10BD     		pop	{r4, pc}
 266              		.cfi_endproc
 267              	.LFE34:
 268              		.size	TimeSlotInterrupt, .-TimeSlotInterrupt
 269 0016 C046     		.section	.text.UpdateChannelDescriptor,"ax",%progbits
 270              		.align	2
 271              		.global	UpdateChannelDescriptor
 272              		.code	16
 273              		.thumb_func
 274              		.type	UpdateChannelDescriptor, %function
 275              	UpdateChannelDescriptor:
 276              	.LFB35:
 113:main.c        **** /**************************************************************************
 114:main.c        ****  This function to update channel descriptors and pin state.
 115:main.c        ****  Counters D, H and L of all other channels are reset to the initial state
 116:main.c        ****  to start all channels synchronously.
 117:main.c        ****  Parameters:
 118:main.c        ****  ChannelNumber - channel to be updated;
ARM GAS  C:\Users\Acer\AppData\Local\Temp\ccxzIaol.s 			page 8


 119:main.c        ****  D - new value of delay D;
 120:main.c        ****  H - new value of pulse duration H;
 121:main.c        ****  L - new value of pause duration L;
 122:main.c        **** **************************************************************************/
 123:main.c        **** void UpdateChannelDescriptor(uint8 ChannelNumber, uint8 D, uint8 H, uint8 L)
 124:main.c        **** {
 277              		.loc 1 124 0
 278              		.cfi_startproc
 279              		@ args = 0, pretend = 0, frame = 0
 280              		@ frame_needed = 0, uses_anonymous_args = 0
 281              	.LVL28:
 282 0000 F8B5     		push	{r3, r4, r5, r6, r7, lr}
 283              		.cfi_def_cfa_offset 24
 284              		.cfi_offset 3, -24
 285              		.cfi_offset 4, -20
 286              		.cfi_offset 5, -16
 287              		.cfi_offset 6, -12
 288              		.cfi_offset 7, -8
 289              		.cfi_offset 14, -4
 125:main.c        ****  uint8 ChannelIdx;
 126:main.c        ****  
 127:main.c        ****  /* Enter critical section to avoid interrupts during channel descriptors update */
 128:main.c        ****  CyGlobalIntDisable; /* Disable global interrupts. */
 290              		.loc 1 128 0
 291              		.syntax divided
 292              	@ 128 "main.c" 1
 293 0002 72B6     		CPSID   i
 294              	@ 0 "" 2
 129:main.c        ****  /* Update channel descriptor values from the data received from UART */
 130:main.c        ****  ChannelDescriptorsArray[ChannelNumber].Max_D = D;
 295              		.loc 1 130 0
 296              		.thumb
 297              		.syntax unified
 298 0004 104D     		ldr	r5, .L15
 299 0006 4600     		lsls	r6, r0, #1
 300 0008 3718     		adds	r7, r6, r0
 301 000a BC00     		lsls	r4, r7, #2
 302 000c 2C19     		adds	r4, r5, r4
 303 000e E170     		strb	r1, [r4, #3]
 131:main.c        ****  ChannelDescriptorsArray[ChannelNumber].Max_H = H; 
 304              		.loc 1 131 0
 305 0010 2271     		strb	r2, [r4, #4]
 132:main.c        ****  ChannelDescriptorsArray[ChannelNumber].Max_L = L; 
 306              		.loc 1 132 0
 307 0012 6371     		strb	r3, [r4, #5]
 308              	.LVL29:
 133:main.c        ****  
 134:main.c        ****  /* Reload counters in all channels to synchronize all channels. */
 135:main.c        ****  for (ChannelIdx = 0; ChannelIdx < NUMBER_OF_CHANNELS; ChannelIdx++)
 309              		.loc 1 135 0
 310 0014 0024     		movs	r4, #0
 311 0016 13E0     		b	.L13
 312              	.LVL30:
 313              	.L14:
 136:main.c        ****  {
 137:main.c        ****  ChannelDescriptorsArray[ChannelIdx].Current_D = ChannelDescriptorsArray[ChannelIdx].Max_D;
 314              		.loc 1 137 0 discriminator 3
ARM GAS  C:\Users\Acer\AppData\Local\Temp\ccxzIaol.s 			page 9


 315 0018 0B49     		ldr	r1, .L15
 316 001a 6200     		lsls	r2, r4, #1
 317 001c 1019     		adds	r0, r2, r4
 318 001e 8300     		lsls	r3, r0, #2
 319 0020 CB18     		adds	r3, r1, r3
 320 0022 DE78     		ldrb	r6, [r3, #3]
 321 0024 0500     		movs	r5, r0
 322 0026 8000     		lsls	r0, r0, #2
 323 0028 4654     		strb	r6, [r0, r1]
 138:main.c        ****  ChannelDescriptorsArray[ChannelIdx].Current_H = ChannelDescriptorsArray[ChannelIdx].Max_H;
 324              		.loc 1 138 0 discriminator 3
 325 002a 1879     		ldrb	r0, [r3, #4]
 326 002c 5870     		strb	r0, [r3, #1]
 139:main.c        ****  ChannelDescriptorsArray[ChannelIdx].Current_L = ChannelDescriptorsArray[ChannelIdx].Max_L;
 327              		.loc 1 139 0 discriminator 3
 328 002e 5879     		ldrb	r0, [r3, #5]
 329 0030 9870     		strb	r0, [r3, #2]
 140:main.c        ****  /* Reset output pin corresponding to this channel */
 141:main.c        ****  ChannelDescriptorsArray[ChannelIdx].PinControlFunction(LED_OFF_VALUE);
 330              		.loc 1 141 0 discriminator 3
 331 0032 AB00     		lsls	r3, r5, #2
 332 0034 CB18     		adds	r3, r1, r3
 333 0036 9B68     		ldr	r3, [r3, #8]
 334 0038 0120     		movs	r0, #1
 335 003a 9847     		blx	r3
 336              	.LVL31:
 135:main.c        ****  {
 337              		.loc 1 135 0 discriminator 3
 338 003c 0134     		adds	r4, r4, #1
 339              	.LVL32:
 340 003e E4B2     		uxtb	r4, r4
 341              	.LVL33:
 342              	.L13:
 135:main.c        ****  {
 343              		.loc 1 135 0 is_stmt 0 discriminator 1
 344 0040 032C     		cmp	r4, #3
 345 0042 E9D9     		bls	.L14
 142:main.c        ****  }
 143:main.c        ****  /* Exit critical section */
 144:main.c        ****  CyGlobalIntEnable; /* Enable global interrupts. */
 346              		.loc 1 144 0 is_stmt 1
 347              		.syntax divided
 348              	@ 144 "main.c" 1
 349 0044 62B6     		CPSIE   i
 350              	@ 0 "" 2
 145:main.c        **** }
 351              		.loc 1 145 0
 352              		.thumb
 353              		.syntax unified
 354              		@ sp needed
 355              	.LVL34:
 356 0046 F8BD     		pop	{r3, r4, r5, r6, r7, pc}
 357              	.L16:
 358              		.align	2
 359              	.L15:
 360 0048 00000000 		.word	ChannelDescriptorsArray
 361              		.cfi_endproc
ARM GAS  C:\Users\Acer\AppData\Local\Temp\ccxzIaol.s 			page 10


 362              	.LFE35:
 363              		.size	UpdateChannelDescriptor, .-UpdateChannelDescriptor
 364              		.section	.text.UartBufferParser,"ax",%progbits
 365              		.align	2
 366              		.global	UartBufferParser
 367              		.code	16
 368              		.thumb_func
 369              		.type	UartBufferParser, %function
 370              	UartBufferParser:
 371              	.LFB36:
 146:main.c        **** /**************************************************************************
 147:main.c        ****  This function parses the UART buffer and update counters D, H and L
 148:main.c        **** **************************************************************************/
 149:main.c        **** void UartBufferParser(void)
 150:main.c        **** {
 372              		.loc 1 150 0
 373              		.cfi_startproc
 374              		@ args = 0, pretend = 0, frame = 0
 375              		@ frame_needed = 0, uses_anonymous_args = 0
 376 0000 10B5     		push	{r4, lr}
 377              		.cfi_def_cfa_offset 8
 378              		.cfi_offset 4, -8
 379              		.cfi_offset 14, -4
 151:main.c        ****  uint8 ChannelNumber;
 152:main.c        ****  uint8 ValueD, ValueH, ValueL;
 153:main.c        ****  
 154:main.c        ****  ValueD = UartBuffer[UART_BUFFER_D_VALUE_IDX] - ASCII_OFFSET_FOR_DIGITS;
 380              		.loc 1 154 0
 381 0002 224C     		ldr	r4, .L26
 382 0004 E179     		ldrb	r1, [r4, #7]
 383 0006 3039     		subs	r1, r1, #48
 384 0008 C9B2     		uxtb	r1, r1
 385              	.LVL35:
 155:main.c        ****  ValueH = UartBuffer[UART_BUFFER_H_VALUE_IDX] - ASCII_OFFSET_FOR_DIGITS;
 386              		.loc 1 155 0
 387 000a 227A     		ldrb	r2, [r4, #8]
 388 000c 303A     		subs	r2, r2, #48
 389 000e D2B2     		uxtb	r2, r2
 390              	.LVL36:
 156:main.c        ****  ValueL = UartBuffer[UART_BUFFER_L_VALUE_IDX] - ASCII_OFFSET_FOR_DIGITS;   
 391              		.loc 1 156 0
 392 0010 637A     		ldrb	r3, [r4, #9]
 393 0012 303B     		subs	r3, r3, #48
 394 0014 DBB2     		uxtb	r3, r3
 395              	.LVL37:
 157:main.c        ****  ChannelNumber = UartBuffer[UART_BUFFER_CHANNEL_IDX] - ASCII_OFFSET_FOR_DIGITS;
 396              		.loc 1 157 0
 397 0016 6079     		ldrb	r0, [r4, #5]
 398 0018 3038     		subs	r0, r0, #48
 399 001a C0B2     		uxtb	r0, r0
 400              	.LVL38:
 158:main.c        **** 
 159:main.c        ****  if ('A' != UartBuffer[UART_BUFFER_A_IDX])
 401              		.loc 1 159 0
 402 001c 2478     		ldrb	r4, [r4]
 403 001e 412C     		cmp	r4, #65
 404 0020 02D0     		beq	.L18
ARM GAS  C:\Users\Acer\AppData\Local\Temp\ccxzIaol.s 			page 11


 160:main.c        ****     {
 161:main.c        ****         /* UART buffer content does not match to the expected value "A". Return. */
 162:main.c        ****         Error_Return();
 405              		.loc 1 162 0
 406 0022 FFF7FEFF 		bl	Error_Return
 407              	.LVL39:
 163:main.c        ****         return;
 408              		.loc 1 163 0
 409 0026 2FE0     		b	.L17
 410              	.LVL40:
 411              	.L18:
 164:main.c        ****     }
 165:main.c        ****  if ('T' != UartBuffer[UART_BUFFER_T_IDX])
 412              		.loc 1 165 0
 413 0028 184C     		ldr	r4, .L26
 414 002a 6478     		ldrb	r4, [r4, #1]
 415 002c 542C     		cmp	r4, #84
 416 002e 02D0     		beq	.L20
 166:main.c        ****     {
 167:main.c        ****         Error_Return();
 417              		.loc 1 167 0
 418 0030 FFF7FEFF 		bl	Error_Return
 419              	.LVL41:
 168:main.c        ****         return;
 420              		.loc 1 168 0
 421 0034 28E0     		b	.L17
 422              	.LVL42:
 423              	.L20:
 169:main.c        ****     }
 170:main.c        ****  if ('+' != UartBuffer[UART_BUFFER_PLUS_IDX])
 424              		.loc 1 170 0
 425 0036 154C     		ldr	r4, .L26
 426 0038 A478     		ldrb	r4, [r4, #2]
 427 003a 2B2C     		cmp	r4, #43
 428 003c 02D0     		beq	.L21
 171:main.c        ****     {
 172:main.c        ****         Error_Return();
 429              		.loc 1 172 0
 430 003e FFF7FEFF 		bl	Error_Return
 431              	.LVL43:
 173:main.c        ****         return;
 432              		.loc 1 173 0
 433 0042 21E0     		b	.L17
 434              	.LVL44:
 435              	.L21:
 174:main.c        ****     }
 175:main.c        ****  if ('C' != UartBuffer[UART_BUFFER_C_IDX])
 436              		.loc 1 175 0
 437 0044 114C     		ldr	r4, .L26
 438 0046 E478     		ldrb	r4, [r4, #3]
 439 0048 432C     		cmp	r4, #67
 440 004a 02D0     		beq	.L22
 176:main.c        ****     {
 177:main.c        ****         Error_Return();
 441              		.loc 1 177 0
 442 004c FFF7FEFF 		bl	Error_Return
 443              	.LVL45:
ARM GAS  C:\Users\Acer\AppData\Local\Temp\ccxzIaol.s 			page 12


 178:main.c        ****         return;
 444              		.loc 1 178 0
 445 0050 1AE0     		b	.L17
 446              	.LVL46:
 447              	.L22:
 179:main.c        ****     }
 180:main.c        ****  if ('H' != UartBuffer[UART_BUFFER_H_IDX])
 448              		.loc 1 180 0
 449 0052 0E4C     		ldr	r4, .L26
 450 0054 2479     		ldrb	r4, [r4, #4]
 451 0056 482C     		cmp	r4, #72
 452 0058 02D0     		beq	.L23
 181:main.c        ****     {
 182:main.c        ****         Error_Return();
 453              		.loc 1 182 0
 454 005a FFF7FEFF 		bl	Error_Return
 455              	.LVL47:
 183:main.c        ****         return;
 456              		.loc 1 183 0
 457 005e 13E0     		b	.L17
 458              	.LVL48:
 459              	.L23:
 184:main.c        ****     }
 185:main.c        ****  if ('=' != UartBuffer[UART_BUFFER_EQUALS_IDX])
 460              		.loc 1 185 0
 461 0060 0A4C     		ldr	r4, .L26
 462 0062 A479     		ldrb	r4, [r4, #6]
 463 0064 3D2C     		cmp	r4, #61
 464 0066 02D0     		beq	.L24
 186:main.c        ****     {
 187:main.c        ****         Error_Return();
 465              		.loc 1 187 0
 466 0068 FFF7FEFF 		bl	Error_Return
 467              	.LVL49:
 188:main.c        ****         return;
 468              		.loc 1 188 0
 469 006c 0CE0     		b	.L17
 470              	.LVL50:
 471              	.L24:
 189:main.c        ****     }
 190:main.c        ****     
 191:main.c        ****  if (ValueD >= 0 && ValueD <= 9 &&
 472              		.loc 1 191 0
 473 006e 0929     		cmp	r1, #9
 474 0070 08D8     		bhi	.L25
 192:main.c        ****      ValueH >= 0 && ValueH <= 9 &&
 475              		.loc 1 192 0
 476 0072 092A     		cmp	r2, #9
 477 0074 06D8     		bhi	.L25
 193:main.c        ****      ValueL >= 0 && ValueL <= 9 &&
 478              		.loc 1 193 0
 479 0076 092B     		cmp	r3, #9
 480 0078 04D8     		bhi	.L25
 194:main.c        ****      ChannelNumber >= 0 && ChannelNumber < NUMBER_OF_CHANNELS)
 481              		.loc 1 194 0
 482 007a 0328     		cmp	r0, #3
 483 007c 02D8     		bhi	.L25
ARM GAS  C:\Users\Acer\AppData\Local\Temp\ccxzIaol.s 			page 13


 195:main.c        ****     {
 196:main.c        ****         /* Update channel descriptor with received values D, H and L */
 197:main.c        ****         UpdateChannelDescriptor(ChannelNumber, ValueD, ValueH, ValueL);
 484              		.loc 1 197 0
 485 007e FFF7FEFF 		bl	UpdateChannelDescriptor
 486              	.LVL51:
 487 0082 01E0     		b	.L17
 488              	.LVL52:
 489              	.L25:
 198:main.c        ****     }
 199:main.c        ****  else
 200:main.c        ****     {
 201:main.c        ****         Error_Return();
 490              		.loc 1 201 0
 491 0084 FFF7FEFF 		bl	Error_Return
 492              	.LVL53:
 493              	.L17:
 202:main.c        ****     }
 203:main.c        **** }
 494              		.loc 1 203 0
 495              		@ sp needed
 496 0088 10BD     		pop	{r4, pc}
 497              	.L27:
 498 008a C046     		.align	2
 499              	.L26:
 500 008c 00000000 		.word	UartBuffer
 501              		.cfi_endproc
 502              	.LFE36:
 503              		.size	UartBufferParser, .-UartBufferParser
 504              		.section	.text.UartDataReader,"ax",%progbits
 505              		.align	2
 506              		.global	UartDataReader
 507              		.code	16
 508              		.thumb_func
 509              		.type	UartDataReader, %function
 510              	UartDataReader:
 511              	.LFB37:
 204:main.c        **** /**************************************************************************
 205:main.c        ****  This function to read bytes (characters) from UART, collect data to the
 206:main.c        ****  buffer and parse the buffer.
 207:main.c        **** **************************************************************************/
 208:main.c        **** void UartDataReader(void)
 209:main.c        **** {
 512              		.loc 1 209 0
 513              		.cfi_startproc
 514              		@ args = 0, pretend = 0, frame = 0
 515              		@ frame_needed = 0, uses_anonymous_args = 0
 516 0000 10B5     		push	{r4, lr}
 517              		.cfi_def_cfa_offset 8
 518              		.cfi_offset 4, -8
 519              		.cfi_offset 14, -4
 520              	.LVL54:
 210:main.c        ****  char CurrentCharacter = 0;
 211:main.c        ****  CurrentCharacter = UART_1_UartGetChar();
 521              		.loc 1 211 0
 522 0002 FFF7FEFF 		bl	UART_1_UartGetChar
 523              	.LVL55:
ARM GAS  C:\Users\Acer\AppData\Local\Temp\ccxzIaol.s 			page 14


 524 0006 C4B2     		uxtb	r4, r0
 525              	.LVL56:
 212:main.c        ****  if (0 == CurrentCharacter)
 526              		.loc 1 212 0
 527 0008 002C     		cmp	r4, #0
 528 000a 16D0     		beq	.L28
 213:main.c        ****  {
 214:main.c        ****  /* If current character equal to zero it means that no data received
 215:main.c        **** from UART.
 216:main.c        ****  Retrun from the function. */
 217:main.c        ****  return;
 218:main.c        ****  }
 219:main.c        ****  
 220:main.c        ****  /* Send back received character to see it in the terminal */
 221:main.c        ****  UART_1_UartPutChar(CurrentCharacter);
 529              		.loc 1 221 0
 530 000c FF23     		movs	r3, #255
 531 000e 1840     		ands	r0, r3
 532 0010 FFF7FEFF 		bl	UART_1_SpiUartWriteTxData
 533              	.LVL57:
 222:main.c        ****  
 223:main.c        ****  /* Check if received character is "A" (== indicator of packet begin) */
 224:main.c        ****  if ('A' == CurrentCharacter)
 534              		.loc 1 224 0
 535 0014 412C     		cmp	r4, #65
 536 0016 02D1     		bne	.L30
 225:main.c        ****  {
 226:main.c        ****  /* UART received character "A". Reset index to begin of the UART buffer
 227:main.c        **** */
 228:main.c        ****  UartBufferIdx = 0;
 537              		.loc 1 228 0
 538 0018 0022     		movs	r2, #0
 539 001a 084B     		ldr	r3, .L31
 540 001c 1A70     		strb	r2, [r3]
 541              	.L30:
 229:main.c        ****  }
 230:main.c        ****  /* Put received character to UART buffer and increment index. */
 231:main.c        ****  UartBuffer[UartBufferIdx] = CurrentCharacter;
 542              		.loc 1 231 0
 543 001e 074A     		ldr	r2, .L31
 544 0020 1378     		ldrb	r3, [r2]
 545 0022 0749     		ldr	r1, .L31+4
 546 0024 CC54     		strb	r4, [r1, r3]
 232:main.c        ****  UartBufferIdx++;
 547              		.loc 1 232 0
 548 0026 0133     		adds	r3, r3, #1
 549 0028 DBB2     		uxtb	r3, r3
 550 002a 1370     		strb	r3, [r2]
 233:main.c        ****  
 234:main.c        ****  /* Check if UART buffer is filled */
 235:main.c        ****  if (UART_BUFFER_SIZE == UartBufferIdx)
 551              		.loc 1 235 0
 552 002c 0A2B     		cmp	r3, #10
 553 002e 04D1     		bne	.L28
 236:main.c        ****  {
 237:main.c        ****  /* UART buffer is full. Start parse this buffer. */
 238:main.c        ****  UartBufferParser();
ARM GAS  C:\Users\Acer\AppData\Local\Temp\ccxzIaol.s 			page 15


 554              		.loc 1 238 0
 555 0030 FFF7FEFF 		bl	UartBufferParser
 556              	.LVL58:
 239:main.c        ****  /* Reset index to begin of the UART buffer */
 240:main.c        ****  UartBufferIdx = 0;
 557              		.loc 1 240 0
 558 0034 0022     		movs	r2, #0
 559 0036 014B     		ldr	r3, .L31
 560 0038 1A70     		strb	r2, [r3]
 561              	.L28:
 241:main.c        ****  }
 242:main.c        **** }
 562              		.loc 1 242 0
 563              		@ sp needed
 564              	.LVL59:
 565 003a 10BD     		pop	{r4, pc}
 566              	.L32:
 567              		.align	2
 568              	.L31:
 569 003c 00000000 		.word	UartBufferIdx
 570 0040 00000000 		.word	UartBuffer
 571              		.cfi_endproc
 572              	.LFE37:
 573              		.size	UartDataReader, .-UartDataReader
 574              		.section	.text.Init,"ax",%progbits
 575              		.align	2
 576              		.global	Init
 577              		.code	16
 578              		.thumb_func
 579              		.type	Init, %function
 580              	Init:
 581              	.LFB38:
 243:main.c        **** /**************************************************************************
 244:main.c        ****  This function performs generic initialization.
 245:main.c        **** **************************************************************************/
 246:main.c        **** void Init(void)
 247:main.c        **** {
 582              		.loc 1 247 0
 583              		.cfi_startproc
 584              		@ args = 0, pretend = 0, frame = 0
 585              		@ frame_needed = 0, uses_anonymous_args = 0
 586 0000 10B5     		push	{r4, lr}
 587              		.cfi_def_cfa_offset 8
 588              		.cfi_offset 4, -8
 589              		.cfi_offset 14, -4
 248:main.c        ****  /* Assign pin control functions to the channel descriptors. */
 249:main.c        ****  ChannelDescriptorsArray[0].PinControlFunction = Blue_Output_Write;
 590              		.loc 1 249 0
 591 0002 084B     		ldr	r3, .L34
 592 0004 084A     		ldr	r2, .L34+4
 593 0006 9A60     		str	r2, [r3, #8]
 250:main.c        ****  ChannelDescriptorsArray[1].PinControlFunction = Green_Output_Write;
 594              		.loc 1 250 0
 595 0008 0849     		ldr	r1, .L34+8
 596 000a 5961     		str	r1, [r3, #20]
 251:main.c        ****  ChannelDescriptorsArray[2].PinControlFunction = Red_Output_Write;
 597              		.loc 1 251 0
ARM GAS  C:\Users\Acer\AppData\Local\Temp\ccxzIaol.s 			page 16


 598 000c 0849     		ldr	r1, .L34+12
 599 000e 1962     		str	r1, [r3, #32]
 252:main.c        ****  ChannelDescriptorsArray[3].PinControlFunction = Blue_Output_Write;
 600              		.loc 1 252 0
 601 0010 DA62     		str	r2, [r3, #44]
 253:main.c        ****  
 254:main.c        **** /* UART component start */
 255:main.c        ****  UART_1_Start();
 602              		.loc 1 255 0
 603 0012 FFF7FEFF 		bl	UART_1_Start
 604              	.LVL60:
 256:main.c        **** 
 257:main.c        ****  /* Start Interrupt component */
 258:main.c        ****  isr_1_StartEx(TimeSlotInterrupt);
 605              		.loc 1 258 0
 606 0016 0748     		ldr	r0, .L34+16
 607 0018 FFF7FEFF 		bl	isr_1_StartEx
 608              	.LVL61:
 259:main.c        **** 
 260:main.c        ****  /* Start component Timer */
 261:main.c        ****  Timer_1_Start();
 609              		.loc 1 261 0
 610 001c FFF7FEFF 		bl	Timer_1_Start
 611              	.LVL62:
 262:main.c        **** }
 612              		.loc 1 262 0
 613              		@ sp needed
 614 0020 10BD     		pop	{r4, pc}
 615              	.L35:
 616 0022 C046     		.align	2
 617              	.L34:
 618 0024 00000000 		.word	ChannelDescriptorsArray
 619 0028 00000000 		.word	Blue_Output_Write
 620 002c 00000000 		.word	Green_Output_Write
 621 0030 00000000 		.word	Red_Output_Write
 622 0034 00000000 		.word	TimeSlotInterrupt
 623              		.cfi_endproc
 624              	.LFE38:
 625              		.size	Init, .-Init
 626              		.section	.text.main,"ax",%progbits
 627              		.align	2
 628              		.global	main
 629              		.code	16
 630              		.thumb_func
 631              		.type	main, %function
 632              	main:
 633              	.LFB39:
 263:main.c        **** /**************************************************************************
 264:main.c        ****  Main function
 265:main.c        **** **************************************************************************/
 266:main.c        **** int main(void)
 267:main.c        **** {
 634              		.loc 1 267 0
 635              		.cfi_startproc
 636              		@ Volatile: function does not return.
 637              		@ args = 0, pretend = 0, frame = 0
 638              		@ frame_needed = 0, uses_anonymous_args = 0
ARM GAS  C:\Users\Acer\AppData\Local\Temp\ccxzIaol.s 			page 17


 639 0000 10B5     		push	{r4, lr}
 640              		.cfi_def_cfa_offset 8
 641              		.cfi_offset 4, -8
 642              		.cfi_offset 14, -4
 268:main.c        ****  CyGlobalIntEnable; /* Enable global interrupts. */
 643              		.loc 1 268 0
 644              		.syntax divided
 645              	@ 268 "main.c" 1
 646 0002 62B6     		CPSIE   i
 647              	@ 0 "" 2
 269:main.c        ****  Red_Output_Write(1);
 648              		.loc 1 269 0
 649              		.thumb
 650              		.syntax unified
 651 0004 0120     		movs	r0, #1
 652 0006 FFF7FEFF 		bl	Red_Output_Write
 653              	.LVL63:
 270:main.c        ****  Blue_Output_Write(1);
 654              		.loc 1 270 0
 655 000a 0120     		movs	r0, #1
 656 000c FFF7FEFF 		bl	Blue_Output_Write
 657              	.LVL64:
 271:main.c        ****  Green_Output_Write(1);
 658              		.loc 1 271 0
 659 0010 0120     		movs	r0, #1
 660 0012 FFF7FEFF 		bl	Green_Output_Write
 661              	.LVL65:
 272:main.c        ****  /* Perform generic initialization */
 273:main.c        ****  Init(); 
 662              		.loc 1 273 0
 663 0016 FFF7FEFF 		bl	Init
 664              	.LVL66:
 665              	.L37:
 274:main.c        ****  /* Infinite loop */
 275:main.c        ****  for(;;)
 276:main.c        ****  {
 277:main.c        ****     UartDataReader();
 666              		.loc 1 277 0 discriminator 1
 667 001a FFF7FEFF 		bl	UartDataReader
 668              	.LVL67:
 669 001e FCE7     		b	.L37
 670              		.cfi_endproc
 671              	.LFE39:
 672              		.size	main, .-main
 673              		.comm	UartBufferIdx,1,1
 674              		.comm	UartBuffer,10,4
 675              		.comm	ChannelDescriptorsArray,48,4
 676              		.text
 677              	.Letext0:
 678              		.file 2 "Generated_Source\\PSoC4/cytypes.h"
 679              		.file 3 "Generated_Source\\PSoC4/UART_1_SPI_UART.h"
 680              		.file 4 "Generated_Source\\PSoC4/UART_1.h"
 681              		.file 5 "Generated_Source\\PSoC4/isr_1.h"
 682              		.file 6 "Generated_Source\\PSoC4/Timer_1.h"
 683              		.file 7 "Generated_Source\\PSoC4/Red_Output.h"
 684              		.file 8 "Generated_Source\\PSoC4/Blue_Output.h"
 685              		.file 9 "Generated_Source\\PSoC4/Green_Output.h"
ARM GAS  C:\Users\Acer\AppData\Local\Temp\ccxzIaol.s 			page 18

